
t:     file format elf64-x86-64


Disassembly of section .text:

0000000000001000 <entry>:
    1000:	f3 0f 1e fa          	endbr64
    1004:	55                   	push   rbp
    1005:	48 89 e5             	mov    rbp,rsp
    1008:	48 83 ec 40          	sub    rsp,0x40
    100c:	48 8d 05 68 50 00 00 	lea    rax,[rip+0x5068]        # 607b <_binary_fag_bin_end>
    1013:	48 8d 15 e6 4f 00 00 	lea    rdx,[rip+0x4fe6]        # 6000 <_binary_fag_bin_start>
    101a:	48 29 d0             	sub    rax,rdx
    101d:	48 89 45 f0          	mov    QWORD PTR [rbp-0x10],rax
    1021:	c7 45 fc 00 00 00 00 	mov    DWORD PTR [rbp-0x4],0x0
    1028:	c7 45 f8 00 00 00 00 	mov    DWORD PTR [rbp-0x8],0x0
    102f:	e9 8e 00 00 00       	jmp    10c2 <entry+0xc2>
    1034:	8b 45 f8             	mov    eax,DWORD PTR [rbp-0x8]
    1037:	83 c0 05             	add    eax,0x5
    103a:	39 45 fc             	cmp    DWORD PTR [rbp-0x4],eax
    103d:	75 0e                	jne    104d <entry+0x4d>
    103f:	83 45 f8 05          	add    DWORD PTR [rbp-0x8],0x5
    1043:	bf 00 00 00 00       	mov    edi,0x0
    1048:	e8 62 05 00 00       	call   15af <println>
    104d:	8b 45 fc             	mov    eax,DWORD PTR [rbp-0x4]
    1050:	48 98                	cdqe
    1052:	48 8d 15 22 50 00 00 	lea    rdx,[rip+0x5022]        # 607b <_binary_fag_bin_end>
    1059:	0f b6 04 10          	movzx  eax,BYTE PTR [rax+rdx*1]
    105d:	0f b6 c0             	movzx  eax,al
    1060:	48 8d 55 e5          	lea    rdx,[rbp-0x1b]
    1064:	48 89 d6             	mov    rsi,rdx
    1067:	89 c7                	mov    edi,eax
    1069:	e8 85 19 00 00       	call   29f3 <byte_to_hex>
    106e:	48 8d 45 e5          	lea    rax,[rbp-0x1b]
    1072:	48 89 45 c0          	mov    QWORD PTR [rbp-0x40],rax
    1076:	48 c7 45 c8 00 00 00 	mov    QWORD PTR [rbp-0x38],0x0
    107d:	00 
    107e:	8b 45 f8             	mov    eax,DWORD PTR [rbp-0x8]
    1081:	83 e8 05             	sub    eax,0x5
    1084:	39 45 fc             	cmp    DWORD PTR [rbp-0x4],eax
    1087:	75 09                	jne    1092 <entry+0x92>
    1089:	48 8d 05 70 2f 00 00 	lea    rax,[rip+0x2f70]        # 4000 <_start+0x736>
    1090:	eb 07                	jmp    1099 <entry+0x99>
    1092:	48 8d 05 6a 2f 00 00 	lea    rax,[rip+0x2f6a]        # 4003 <_start+0x739>
    1099:	48 8d 55 c0          	lea    rdx,[rbp-0x40]
    109d:	48 89 c6             	mov    rsi,rax
    10a0:	48 8d 05 19 50 00 00 	lea    rax,[rip+0x5019]        # 60c0 <_OUTPUT_>
    10a7:	48 89 c7             	mov    rdi,rax
    10aa:	e8 e5 0b 00 00       	call   1c94 <_sprintf>
    10af:	48 8d 05 0a 50 00 00 	lea    rax,[rip+0x500a]        # 60c0 <_OUTPUT_>
    10b6:	48 89 c7             	mov    rdi,rax
    10b9:	e8 9f 04 00 00       	call   155d <print>
    10be:	83 45 fc 01          	add    DWORD PTR [rbp-0x4],0x1
    10c2:	8b 45 fc             	mov    eax,DWORD PTR [rbp-0x4]
    10c5:	48 98                	cdqe
    10c7:	48 3b 45 f0          	cmp    rax,QWORD PTR [rbp-0x10]
    10cb:	0f 82 63 ff ff ff    	jb     1034 <entry+0x34>
    10d1:	48 8b 45 f0          	mov    rax,QWORD PTR [rbp-0x10]
    10d5:	48 89 45 d0          	mov    QWORD PTR [rbp-0x30],rax
    10d9:	48 c7 45 d8 00 00 00 	mov    QWORD PTR [rbp-0x28],0x0
    10e0:	00 
    10e1:	48 8d 45 d0          	lea    rax,[rbp-0x30]
    10e5:	48 89 c2             	mov    rdx,rax
    10e8:	48 8d 05 19 2f 00 00 	lea    rax,[rip+0x2f19]        # 4008 <_start+0x73e>
    10ef:	48 89 c6             	mov    rsi,rax
    10f2:	48 8d 05 c7 4f 00 00 	lea    rax,[rip+0x4fc7]        # 60c0 <_OUTPUT_>
    10f9:	48 89 c7             	mov    rdi,rax
    10fc:	e8 93 0b 00 00       	call   1c94 <_sprintf>
    1101:	48 8d 05 b8 4f 00 00 	lea    rax,[rip+0x4fb8]        # 60c0 <_OUTPUT_>
    1108:	48 89 c7             	mov    rdi,rax
    110b:	e8 4d 04 00 00       	call   155d <print>
    1110:	48 8d 05 e9 4e 00 00 	lea    rax,[rip+0x4ee9]        # 6000 <_binary_fag_bin_start>
    1117:	48 89 45 e8          	mov    QWORD PTR [rbp-0x18],rax
    111b:	90                   	nop
    111c:	c9                   	leave
    111d:	c3                   	ret

000000000000111e <toggle_debug_mode>:
    111e:	f3 0f 1e fa          	endbr64
    1122:	55                   	push   rbp
    1123:	48 89 e5             	mov    rbp,rsp
    1126:	8b 05 74 4f 00 00    	mov    eax,DWORD PTR [rip+0x4f74]        # 60a0 <__CLIBP_DEBUG__>
    112c:	85 c0                	test   eax,eax
    112e:	0f 94 c0             	sete   al
    1131:	0f b6 c0             	movzx  eax,al
    1134:	89 05 66 4f 00 00    	mov    DWORD PTR [rip+0x4f66],eax        # 60a0 <__CLIBP_DEBUG__>
    113a:	90                   	nop
    113b:	5d                   	pop    rbp
    113c:	c3                   	ret

000000000000113d <__exit>:
    113d:	f3 0f 1e fa          	endbr64
    1141:	55                   	push   rbp
    1142:	48 89 e5             	mov    rbp,rsp
    1145:	48 83 ec 10          	sub    rsp,0x10
    1149:	89 7d fc             	mov    DWORD PTR [rbp-0x4],edi
    114c:	8b 45 fc             	mov    eax,DWORD PTR [rbp-0x4]
    114f:	48 98                	cdqe
    1151:	48 83 ec 08          	sub    rsp,0x8
    1155:	6a 3c                	push   0x3c
    1157:	49 c7 c1 ff ff ff ff 	mov    r9,0xffffffffffffffff
    115e:	49 c7 c0 ff ff ff ff 	mov    r8,0xffffffffffffffff
    1165:	48 c7 c1 ff ff ff ff 	mov    rcx,0xffffffffffffffff
    116c:	ba 00 00 00 00       	mov    edx,0x0
    1171:	be 00 00 00 00       	mov    esi,0x0
    1176:	48 89 c7             	mov    rdi,rax
    1179:	e8 4e 1a 00 00       	call   2bcc <__syscall__>
    117e:	48 83 c4 10          	add    rsp,0x10
    1182:	90                   	nop
    1183:	c9                   	leave
    1184:	c3                   	ret

0000000000001185 <get_input>:
    1185:	f3 0f 1e fa          	endbr64
    1189:	55                   	push   rbp
    118a:	48 89 e5             	mov    rbp,rsp
    118d:	48 83 ec 20          	sub    rsp,0x20
    1191:	48 89 7d e8          	mov    QWORD PTR [rbp-0x18],rdi
    1195:	89 75 e4             	mov    DWORD PTR [rbp-0x1c],esi
    1198:	8b 45 e4             	mov    eax,DWORD PTR [rbp-0x1c]
    119b:	48 63 d0             	movsxd rdx,eax
    119e:	48 8b 45 e8          	mov    rax,QWORD PTR [rbp-0x18]
    11a2:	48 83 ec 08          	sub    rsp,0x8
    11a6:	6a 00                	push   0x0
    11a8:	49 c7 c1 ff ff ff ff 	mov    r9,0xffffffffffffffff
    11af:	49 c7 c0 ff ff ff ff 	mov    r8,0xffffffffffffffff
    11b6:	48 c7 c1 ff ff ff ff 	mov    rcx,0xffffffffffffffff
    11bd:	48 89 c6             	mov    rsi,rax
    11c0:	bf 00 00 00 00       	mov    edi,0x0
    11c5:	e8 02 1a 00 00       	call   2bcc <__syscall__>
    11ca:	48 83 c4 10          	add    rsp,0x10
    11ce:	48 89 45 f8          	mov    QWORD PTR [rbp-0x8],rax
    11d2:	48 8b 45 f8          	mov    rax,QWORD PTR [rbp-0x8]
    11d6:	c9                   	leave
    11d7:	c3                   	ret

00000000000011d8 <execute>:
    11d8:	f3 0f 1e fa          	endbr64
    11dc:	55                   	push   rbp
    11dd:	48 89 e5             	mov    rbp,rsp
    11e0:	48 83 ec 20          	sub    rsp,0x20
    11e4:	48 89 7d e8          	mov    QWORD PTR [rbp-0x18],rdi
    11e8:	48 89 75 e0          	mov    QWORD PTR [rbp-0x20],rsi
    11ec:	48 83 7d e8 00       	cmp    QWORD PTR [rbp-0x18],0x0
    11f1:	0f 84 f7 00 00 00    	je     12ee <execute+0x116>
    11f7:	48 83 7d e0 00       	cmp    QWORD PTR [rbp-0x20],0x0
    11fc:	0f 84 ec 00 00 00    	je     12ee <execute+0x116>
    1202:	48 83 ec 08          	sub    rsp,0x8
    1206:	6a 39                	push   0x39
    1208:	49 c7 c1 ff ff ff ff 	mov    r9,0xffffffffffffffff
    120f:	49 c7 c0 ff ff ff ff 	mov    r8,0xffffffffffffffff
    1216:	48 c7 c1 ff ff ff ff 	mov    rcx,0xffffffffffffffff
    121d:	ba 00 00 00 00       	mov    edx,0x0
    1222:	be 00 00 00 00       	mov    esi,0x0
    1227:	bf 00 00 00 00       	mov    edi,0x0
    122c:	e8 9b 19 00 00       	call   2bcc <__syscall__>
    1231:	48 83 c4 10          	add    rsp,0x10
    1235:	48 89 45 f8          	mov    QWORD PTR [rbp-0x8],rax
    1239:	48 83 7d f8 00       	cmp    QWORD PTR [rbp-0x8],0x0
    123e:	75 36                	jne    1276 <execute+0x9e>
    1240:	48 8b 75 e0          	mov    rsi,QWORD PTR [rbp-0x20]
    1244:	48 8b 45 e8          	mov    rax,QWORD PTR [rbp-0x18]
    1248:	48 83 ec 08          	sub    rsp,0x8
    124c:	6a 3b                	push   0x3b
    124e:	49 c7 c1 ff ff ff ff 	mov    r9,0xffffffffffffffff
    1255:	49 c7 c0 ff ff ff ff 	mov    r8,0xffffffffffffffff
    125c:	48 c7 c1 ff ff ff ff 	mov    rcx,0xffffffffffffffff
    1263:	ba 00 00 00 00       	mov    edx,0x0
    1268:	48 89 c7             	mov    rdi,rax
    126b:	e8 5c 19 00 00       	call   2bcc <__syscall__>
    1270:	48 83 c4 10          	add    rsp,0x10
    1274:	eb 79                	jmp    12ef <execute+0x117>
    1276:	48 83 7d f8 00       	cmp    QWORD PTR [rbp-0x8],0x0
    127b:	7e 37                	jle    12b4 <execute+0xdc>
    127d:	48 8b 45 f8          	mov    rax,QWORD PTR [rbp-0x8]
    1281:	48 83 ec 08          	sub    rsp,0x8
    1285:	6a 3d                	push   0x3d
    1287:	49 c7 c1 ff ff ff ff 	mov    r9,0xffffffffffffffff
    128e:	49 c7 c0 ff ff ff ff 	mov    r8,0xffffffffffffffff
    1295:	48 c7 c1 ff ff ff ff 	mov    rcx,0xffffffffffffffff
    129c:	ba 00 00 00 00       	mov    edx,0x0
    12a1:	be 00 00 00 00       	mov    esi,0x0
    12a6:	48 89 c7             	mov    rdi,rax
    12a9:	e8 1e 19 00 00       	call   2bcc <__syscall__>
    12ae:	48 83 c4 10          	add    rsp,0x10
    12b2:	eb 3b                	jmp    12ef <execute+0x117>
    12b4:	48 8d 05 57 2d 00 00 	lea    rax,[rip+0x2d57]        # 4012 <_start+0x748>
    12bb:	48 83 ec 08          	sub    rsp,0x8
    12bf:	6a 01                	push   0x1
    12c1:	49 c7 c1 ff ff ff ff 	mov    r9,0xffffffffffffffff
    12c8:	49 c7 c0 ff ff ff ff 	mov    r8,0xffffffffffffffff
    12cf:	48 c7 c1 ff ff ff ff 	mov    rcx,0xffffffffffffffff
    12d6:	ba 07 00 00 00       	mov    edx,0x7
    12db:	48 89 c6             	mov    rsi,rax
    12de:	bf 01 00 00 00       	mov    edi,0x1
    12e3:	e8 e4 18 00 00       	call   2bcc <__syscall__>
    12e8:	48 83 c4 10          	add    rsp,0x10
    12ec:	eb 01                	jmp    12ef <execute+0x117>
    12ee:	90                   	nop
    12ef:	c9                   	leave
    12f0:	c3                   	ret

00000000000012f1 <print_sz>:
    12f1:	f3 0f 1e fa          	endbr64
    12f5:	55                   	push   rbp
    12f6:	48 89 e5             	mov    rbp,rsp
    12f9:	48 83 ec 10          	sub    rsp,0x10
    12fd:	48 89 7d f8          	mov    QWORD PTR [rbp-0x8],rdi
    1301:	89 75 f4             	mov    DWORD PTR [rbp-0xc],esi
    1304:	8b 45 f4             	mov    eax,DWORD PTR [rbp-0xc]
    1307:	48 63 d0             	movsxd rdx,eax
    130a:	48 8b 45 f8          	mov    rax,QWORD PTR [rbp-0x8]
    130e:	48 83 ec 08          	sub    rsp,0x8
    1312:	6a 01                	push   0x1
    1314:	41 b9 00 00 00 00    	mov    r9d,0x0
    131a:	41 b8 00 00 00 00    	mov    r8d,0x0
    1320:	b9 00 00 00 00       	mov    ecx,0x0
    1325:	48 89 c6             	mov    rsi,rax
    1328:	bf 01 00 00 00       	mov    edi,0x1
    132d:	e8 9a 18 00 00       	call   2bcc <__syscall__>
    1332:	48 83 c4 10          	add    rsp,0x10
    1336:	90                   	nop
    1337:	c9                   	leave
    1338:	c3                   	ret

0000000000001339 <printc>:
    1339:	f3 0f 1e fa          	endbr64
    133d:	55                   	push   rbp
    133e:	48 89 e5             	mov    rbp,rsp
    1341:	48 83 ec 20          	sub    rsp,0x20
    1345:	89 f8                	mov    eax,edi
    1347:	88 45 ec             	mov    BYTE PTR [rbp-0x14],al
    134a:	66 c7 45 fe 00 00    	mov    WORD PTR [rbp-0x2],0x0
    1350:	0f b6 45 ec          	movzx  eax,BYTE PTR [rbp-0x14]
    1354:	88 45 fe             	mov    BYTE PTR [rbp-0x2],al
    1357:	c6 45 ff 00          	mov    BYTE PTR [rbp-0x1],0x0
    135b:	48 8d 45 fe          	lea    rax,[rbp-0x2]
    135f:	48 89 c7             	mov    rdi,rax
    1362:	e8 f6 01 00 00       	call   155d <print>
    1367:	90                   	nop
    1368:	c9                   	leave
    1369:	c3                   	ret

000000000000136a <printi>:
    136a:	f3 0f 1e fa          	endbr64
    136e:	55                   	push   rbp
    136f:	48 89 e5             	mov    rbp,rsp
    1372:	48 83 ec 20          	sub    rsp,0x20
    1376:	89 7d ec             	mov    DWORD PTR [rbp-0x14],edi
    1379:	83 7d ec 00          	cmp    DWORD PTR [rbp-0x14],0x0
    137d:	75 11                	jne    1390 <printi+0x26>
    137f:	48 8d 05 98 2c 00 00 	lea    rax,[rip+0x2c98]        # 401e <_start+0x754>
    1386:	48 89 c7             	mov    rdi,rax
    1389:	e8 cf 01 00 00       	call   155d <print>
    138e:	eb 20                	jmp    13b0 <printi+0x46>
    1390:	c7 45 fb 00 00 00 00 	mov    DWORD PTR [rbp-0x5],0x0
    1397:	c6 45 ff 00          	mov    BYTE PTR [rbp-0x1],0x0
    139b:	8b 45 ec             	mov    eax,DWORD PTR [rbp-0x14]
    139e:	83 c0 30             	add    eax,0x30
    13a1:	88 45 fb             	mov    BYTE PTR [rbp-0x5],al
    13a4:	48 8d 45 fb          	lea    rax,[rbp-0x5]
    13a8:	48 89 c7             	mov    rdi,rax
    13ab:	e8 ad 01 00 00       	call   155d <print>
    13b0:	c9                   	leave
    13b1:	c3                   	ret

00000000000013b2 <_printi>:
    13b2:	f3 0f 1e fa          	endbr64
    13b6:	55                   	push   rbp
    13b7:	48 89 e5             	mov    rbp,rsp
    13ba:	48 81 ec c0 00 00 00 	sub    rsp,0xc0
    13c1:	89 bd 4c ff ff ff    	mov    DWORD PTR [rbp-0xb4],edi
    13c7:	8b 85 4c ff ff ff    	mov    eax,DWORD PTR [rbp-0xb4]
    13cd:	89 45 fc             	mov    DWORD PTR [rbp-0x4],eax
    13d0:	c7 45 f8 00 00 00 00 	mov    DWORD PTR [rbp-0x8],0x0
    13d7:	48 c7 85 50 ff ff ff 	mov    QWORD PTR [rbp-0xb0],0x0
    13de:	00 00 00 00 
    13e2:	48 c7 85 58 ff ff ff 	mov    QWORD PTR [rbp-0xa8],0x0
    13e9:	00 00 00 00 
    13ed:	48 c7 85 60 ff ff ff 	mov    QWORD PTR [rbp-0xa0],0x0
    13f4:	00 00 00 00 
    13f8:	48 c7 85 68 ff ff ff 	mov    QWORD PTR [rbp-0x98],0x0
    13ff:	00 00 00 00 
    1403:	48 c7 85 70 ff ff ff 	mov    QWORD PTR [rbp-0x90],0x0
    140a:	00 00 00 00 
    140e:	48 c7 85 78 ff ff ff 	mov    QWORD PTR [rbp-0x88],0x0
    1415:	00 00 00 00 
    1419:	48 c7 45 80 00 00 00 	mov    QWORD PTR [rbp-0x80],0x0
    1420:	00 
    1421:	48 c7 45 88 00 00 00 	mov    QWORD PTR [rbp-0x78],0x0
    1428:	00 
    1429:	48 c7 45 90 00 00 00 	mov    QWORD PTR [rbp-0x70],0x0
    1430:	00 
    1431:	48 c7 45 98 00 00 00 	mov    QWORD PTR [rbp-0x68],0x0
    1438:	00 
    1439:	48 c7 45 a0 00 00 00 	mov    QWORD PTR [rbp-0x60],0x0
    1440:	00 
    1441:	48 c7 45 a8 00 00 00 	mov    QWORD PTR [rbp-0x58],0x0
    1448:	00 
    1449:	48 c7 45 b0 00 00 00 	mov    QWORD PTR [rbp-0x50],0x0
    1450:	00 
    1451:	48 c7 45 b8 00 00 00 	mov    QWORD PTR [rbp-0x48],0x0
    1458:	00 
    1459:	48 c7 45 c0 00 00 00 	mov    QWORD PTR [rbp-0x40],0x0
    1460:	00 
    1461:	48 c7 45 c8 00 00 00 	mov    QWORD PTR [rbp-0x38],0x0
    1468:	00 
    1469:	48 c7 45 d0 00 00 00 	mov    QWORD PTR [rbp-0x30],0x0
    1470:	00 
    1471:	48 c7 45 d8 00 00 00 	mov    QWORD PTR [rbp-0x28],0x0
    1478:	00 
    1479:	48 c7 45 de 00 00 00 	mov    QWORD PTR [rbp-0x22],0x0
    1480:	00 
    1481:	eb 61                	jmp    14e4 <_printi+0x132>
    1483:	8b 55 fc             	mov    edx,DWORD PTR [rbp-0x4]
    1486:	48 63 c2             	movsxd rax,edx
    1489:	48 69 c0 67 66 66 66 	imul   rax,rax,0x66666667
    1490:	48 c1 e8 20          	shr    rax,0x20
    1494:	89 c1                	mov    ecx,eax
    1496:	c1 f9 02             	sar    ecx,0x2
    1499:	89 d0                	mov    eax,edx
    149b:	c1 f8 1f             	sar    eax,0x1f
    149e:	29 c1                	sub    ecx,eax
    14a0:	89 c8                	mov    eax,ecx
    14a2:	c1 e0 02             	shl    eax,0x2
    14a5:	01 c8                	add    eax,ecx
    14a7:	01 c0                	add    eax,eax
    14a9:	89 d1                	mov    ecx,edx
    14ab:	29 c1                	sub    ecx,eax
    14ad:	89 c8                	mov    eax,ecx
    14af:	8d 48 30             	lea    ecx,[rax+0x30]
    14b2:	8b 45 f8             	mov    eax,DWORD PTR [rbp-0x8]
    14b5:	8d 50 01             	lea    edx,[rax+0x1]
    14b8:	89 55 f8             	mov    DWORD PTR [rbp-0x8],edx
    14bb:	89 ca                	mov    edx,ecx
    14bd:	48 98                	cdqe
    14bf:	88 94 05 50 ff ff ff 	mov    BYTE PTR [rbp+rax*1-0xb0],dl
    14c6:	8b 45 fc             	mov    eax,DWORD PTR [rbp-0x4]
    14c9:	48 63 d0             	movsxd rdx,eax
    14cc:	48 69 d2 67 66 66 66 	imul   rdx,rdx,0x66666667
    14d3:	48 c1 ea 20          	shr    rdx,0x20
    14d7:	89 d1                	mov    ecx,edx
    14d9:	c1 f9 02             	sar    ecx,0x2
    14dc:	99                   	cdq
    14dd:	89 c8                	mov    eax,ecx
    14df:	29 d0                	sub    eax,edx
    14e1:	89 45 fc             	mov    DWORD PTR [rbp-0x4],eax
    14e4:	83 7d fc 00          	cmp    DWORD PTR [rbp-0x4],0x0
    14e8:	75 99                	jne    1483 <_printi+0xd1>
    14ea:	c7 45 f4 00 00 00 00 	mov    DWORD PTR [rbp-0xc],0x0
    14f1:	eb 48                	jmp    153b <_printi+0x189>
    14f3:	8b 45 f4             	mov    eax,DWORD PTR [rbp-0xc]
    14f6:	48 98                	cdqe
    14f8:	0f b6 84 05 50 ff ff 	movzx  eax,BYTE PTR [rbp+rax*1-0xb0]
    14ff:	ff 
    1500:	88 45 f3             	mov    BYTE PTR [rbp-0xd],al
    1503:	83 6d f8 01          	sub    DWORD PTR [rbp-0x8],0x1
    1507:	8b 45 f8             	mov    eax,DWORD PTR [rbp-0x8]
    150a:	48 98                	cdqe
    150c:	0f b6 84 05 50 ff ff 	movzx  eax,BYTE PTR [rbp+rax*1-0xb0]
    1513:	ff 
    1514:	88 45 f2             	mov    BYTE PTR [rbp-0xe],al
    1517:	8b 45 f4             	mov    eax,DWORD PTR [rbp-0xc]
    151a:	48 98                	cdqe
    151c:	0f b6 55 f2          	movzx  edx,BYTE PTR [rbp-0xe]
    1520:	88 94 05 50 ff ff ff 	mov    BYTE PTR [rbp+rax*1-0xb0],dl
    1527:	8b 45 f8             	mov    eax,DWORD PTR [rbp-0x8]
    152a:	48 98                	cdqe
    152c:	0f b6 55 f3          	movzx  edx,BYTE PTR [rbp-0xd]
    1530:	88 94 05 50 ff ff ff 	mov    BYTE PTR [rbp+rax*1-0xb0],dl
    1537:	83 45 f4 01          	add    DWORD PTR [rbp-0xc],0x1
    153b:	8b 45 f4             	mov    eax,DWORD PTR [rbp-0xc]
    153e:	3b 45 f8             	cmp    eax,DWORD PTR [rbp-0x8]
    1541:	7c b0                	jl     14f3 <_printi+0x141>
    1543:	8b 45 f4             	mov    eax,DWORD PTR [rbp-0xc]
    1546:	8d 50 01             	lea    edx,[rax+0x1]
    1549:	48 8d 85 50 ff ff ff 	lea    rax,[rbp-0xb0]
    1550:	89 d6                	mov    esi,edx
    1552:	48 89 c7             	mov    rdi,rax
    1555:	e8 97 fd ff ff       	call   12f1 <print_sz>
    155a:	90                   	nop
    155b:	c9                   	leave
    155c:	c3                   	ret

000000000000155d <print>:
    155d:	f3 0f 1e fa          	endbr64
    1561:	55                   	push   rbp
    1562:	48 89 e5             	mov    rbp,rsp
    1565:	48 83 ec 10          	sub    rsp,0x10
    1569:	48 89 7d f8          	mov    QWORD PTR [rbp-0x8],rdi
    156d:	48 8b 45 f8          	mov    rax,QWORD PTR [rbp-0x8]
    1571:	48 89 c7             	mov    rdi,rax
    1574:	e8 f5 0b 00 00       	call   216e <str_len>
    1579:	48 63 d0             	movsxd rdx,eax
    157c:	48 8b 45 f8          	mov    rax,QWORD PTR [rbp-0x8]
    1580:	48 83 ec 08          	sub    rsp,0x8
    1584:	6a 01                	push   0x1
    1586:	49 c7 c1 ff ff ff ff 	mov    r9,0xffffffffffffffff
    158d:	49 c7 c0 ff ff ff ff 	mov    r8,0xffffffffffffffff
    1594:	48 c7 c1 ff ff ff ff 	mov    rcx,0xffffffffffffffff
    159b:	48 89 c6             	mov    rsi,rax
    159e:	bf 01 00 00 00       	mov    edi,0x1
    15a3:	e8 24 16 00 00       	call   2bcc <__syscall__>
    15a8:	48 83 c4 10          	add    rsp,0x10
    15ac:	90                   	nop
    15ad:	c9                   	leave
    15ae:	c3                   	ret

00000000000015af <println>:
    15af:	f3 0f 1e fa          	endbr64
    15b3:	55                   	push   rbp
    15b4:	48 89 e5             	mov    rbp,rsp
    15b7:	48 83 ec 10          	sub    rsp,0x10
    15bb:	48 89 7d f8          	mov    QWORD PTR [rbp-0x8],rdi
    15bf:	48 83 7d f8 00       	cmp    QWORD PTR [rbp-0x8],0x0
    15c4:	74 3f                	je     1605 <println+0x56>
    15c6:	48 8b 45 f8          	mov    rax,QWORD PTR [rbp-0x8]
    15ca:	48 89 c7             	mov    rdi,rax
    15cd:	e8 9c 0b 00 00       	call   216e <str_len>
    15d2:	48 63 d0             	movsxd rdx,eax
    15d5:	48 8b 45 f8          	mov    rax,QWORD PTR [rbp-0x8]
    15d9:	48 83 ec 08          	sub    rsp,0x8
    15dd:	6a 01                	push   0x1
    15df:	49 c7 c1 ff ff ff ff 	mov    r9,0xffffffffffffffff
    15e6:	49 c7 c0 ff ff ff ff 	mov    r8,0xffffffffffffffff
    15ed:	48 c7 c1 ff ff ff ff 	mov    rcx,0xffffffffffffffff
    15f4:	48 89 c6             	mov    rsi,rax
    15f7:	bf 01 00 00 00       	mov    edi,0x1
    15fc:	e8 cb 15 00 00       	call   2bcc <__syscall__>
    1601:	48 83 c4 10          	add    rsp,0x10
    1605:	48 8d 05 14 2a 00 00 	lea    rax,[rip+0x2a14]        # 4020 <_start+0x756>
    160c:	48 83 ec 08          	sub    rsp,0x8
    1610:	6a 01                	push   0x1
    1612:	49 c7 c1 ff ff ff ff 	mov    r9,0xffffffffffffffff
    1619:	49 c7 c0 ff ff ff ff 	mov    r8,0xffffffffffffffff
    1620:	48 c7 c1 ff ff ff ff 	mov    rcx,0xffffffffffffffff
    1627:	ba 01 00 00 00       	mov    edx,0x1
    162c:	48 89 c6             	mov    rsi,rax
    162f:	bf 01 00 00 00       	mov    edi,0x1
    1634:	e8 93 15 00 00       	call   2bcc <__syscall__>
    1639:	48 83 c4 10          	add    rsp,0x10
    163d:	90                   	nop
    163e:	c9                   	leave
    163f:	c3                   	ret

0000000000001640 <print_args>:
    1640:	f3 0f 1e fa          	endbr64
    1644:	55                   	push   rbp
    1645:	48 89 e5             	mov    rbp,rsp
    1648:	48 83 ec 20          	sub    rsp,0x20
    164c:	48 89 7d e8          	mov    QWORD PTR [rbp-0x18],rdi
    1650:	c7 45 fc 00 00 00 00 	mov    DWORD PTR [rbp-0x4],0x0
    1657:	eb 23                	jmp    167c <print_args+0x3c>
    1659:	8b 45 fc             	mov    eax,DWORD PTR [rbp-0x4]
    165c:	48 98                	cdqe
    165e:	48 8d 14 c5 00 00 00 	lea    rdx,[rax*8+0x0]
    1665:	00 
    1666:	48 8b 45 e8          	mov    rax,QWORD PTR [rbp-0x18]
    166a:	48 01 d0             	add    rax,rdx
    166d:	48 8b 00             	mov    rax,QWORD PTR [rax]
    1670:	48 89 c7             	mov    rdi,rax
    1673:	e8 e5 fe ff ff       	call   155d <print>
    1678:	83 45 fc 01          	add    DWORD PTR [rbp-0x4],0x1
    167c:	8b 45 fc             	mov    eax,DWORD PTR [rbp-0x4]
    167f:	48 98                	cdqe
    1681:	48 8d 14 c5 00 00 00 	lea    rdx,[rax*8+0x0]
    1688:	00 
    1689:	48 8b 45 e8          	mov    rax,QWORD PTR [rbp-0x18]
    168d:	48 01 d0             	add    rax,rdx
    1690:	48 8b 00             	mov    rax,QWORD PTR [rax]
    1693:	48 85 c0             	test   rax,rax
    1696:	75 c1                	jne    1659 <print_args+0x19>
    1698:	90                   	nop
    1699:	90                   	nop
    169a:	c9                   	leave
    169b:	c3                   	ret

000000000000169c <to_heap>:
    169c:	f3 0f 1e fa          	endbr64
    16a0:	55                   	push   rbp
    16a1:	48 89 e5             	mov    rbp,rsp
    16a4:	48 83 ec 20          	sub    rsp,0x20
    16a8:	48 89 7d e8          	mov    QWORD PTR [rbp-0x18],rdi
    16ac:	89 75 e4             	mov    DWORD PTR [rbp-0x1c],esi
    16af:	8b 45 e4             	mov    eax,DWORD PTR [rbp-0x1c]
    16b2:	83 c0 01             	add    eax,0x1
    16b5:	89 c6                	mov    esi,eax
    16b7:	bf 00 00 00 00       	mov    edi,0x0
    16bc:	e8 25 18 00 00       	call   2ee6 <allocate>
    16c1:	48 89 45 f8          	mov    QWORD PTR [rbp-0x8],rax
    16c5:	48 83 7d f8 00       	cmp    QWORD PTR [rbp-0x8],0x0
    16ca:	75 07                	jne    16d3 <to_heap+0x37>
    16cc:	b8 00 00 00 00       	mov    eax,0x0
    16d1:	eb 2d                	jmp    1700 <to_heap+0x64>
    16d3:	8b 45 e4             	mov    eax,DWORD PTR [rbp-0x1c]
    16d6:	48 63 d0             	movsxd rdx,eax
    16d9:	48 8b 4d e8          	mov    rcx,QWORD PTR [rbp-0x18]
    16dd:	48 8b 45 f8          	mov    rax,QWORD PTR [rbp-0x8]
    16e1:	48 89 ce             	mov    rsi,rcx
    16e4:	48 89 c7             	mov    rdi,rax
    16e7:	e8 1d 01 00 00       	call   1809 <mem_cpy>
    16ec:	8b 45 e4             	mov    eax,DWORD PTR [rbp-0x1c]
    16ef:	48 63 d0             	movsxd rdx,eax
    16f2:	48 8b 45 f8          	mov    rax,QWORD PTR [rbp-0x8]
    16f6:	48 01 d0             	add    rax,rdx
    16f9:	c6 00 00             	mov    BYTE PTR [rax],0x0
    16fc:	48 8b 45 f8          	mov    rax,QWORD PTR [rbp-0x8]
    1700:	c9                   	leave
    1701:	c3                   	ret

0000000000001702 <__clibp_panic>:
    1702:	f3 0f 1e fa          	endbr64
    1706:	55                   	push   rbp
    1707:	48 89 e5             	mov    rbp,rsp
    170a:	48 83 ec 20          	sub    rsp,0x20
    170e:	48 89 7d f8          	mov    QWORD PTR [rbp-0x8],rdi
    1712:	48 89 75 f0          	mov    QWORD PTR [rbp-0x10],rsi
    1716:	89 55 ec             	mov    DWORD PTR [rbp-0x14],edx
    1719:	8b 05 81 49 00 00    	mov    eax,DWORD PTR [rip+0x4981]        # 60a0 <__CLIBP_DEBUG__>
    171f:	85 c0                	test   eax,eax
    1721:	74 34                	je     1757 <__clibp_panic+0x55>
    1723:	48 8b 45 f0          	mov    rax,QWORD PTR [rbp-0x10]
    1727:	48 89 c7             	mov    rdi,rax
    172a:	e8 2e fe ff ff       	call   155d <print>
    172f:	48 8d 05 ec 28 00 00 	lea    rax,[rip+0x28ec]        # 4022 <_start+0x758>
    1736:	48 89 c7             	mov    rdi,rax
    1739:	e8 1f fe ff ff       	call   155d <print>
    173e:	8b 45 ec             	mov    eax,DWORD PTR [rbp-0x14]
    1741:	89 c7                	mov    edi,eax
    1743:	e8 6a fc ff ff       	call   13b2 <_printi>
    1748:	48 8d 05 d5 28 00 00 	lea    rax,[rip+0x28d5]        # 4024 <_start+0x75a>
    174f:	48 89 c7             	mov    rdi,rax
    1752:	e8 06 fe ff ff       	call   155d <print>
    1757:	48 8d 05 cb 28 00 00 	lea    rax,[rip+0x28cb]        # 4029 <_start+0x75f>
    175e:	48 89 c7             	mov    rdi,rax
    1761:	e8 f7 fd ff ff       	call   155d <print>
    1766:	48 8b 45 f8          	mov    rax,QWORD PTR [rbp-0x8]
    176a:	48 89 c7             	mov    rdi,rax
    176d:	e8 3d fe ff ff       	call   15af <println>
    1772:	bf 01 00 00 00       	mov    edi,0x1
    1777:	e8 c1 f9 ff ff       	call   113d <__exit>
    177c:	90                   	nop
    177d:	c9                   	leave
    177e:	c3                   	ret

000000000000177f <memzero>:
    177f:	f3 0f 1e fa          	endbr64
    1783:	55                   	push   rbp
    1784:	48 89 e5             	mov    rbp,rsp
    1787:	48 83 ec 10          	sub    rsp,0x10
    178b:	48 89 7d f8          	mov    QWORD PTR [rbp-0x8],rdi
    178f:	48 89 75 f0          	mov    QWORD PTR [rbp-0x10],rsi
    1793:	48 8b 55 f0          	mov    rdx,QWORD PTR [rbp-0x10]
    1797:	48 8b 45 f8          	mov    rax,QWORD PTR [rbp-0x8]
    179b:	be 00 00 00 00       	mov    esi,0x0
    17a0:	48 89 c7             	mov    rdi,rax
    17a3:	e8 b0 00 00 00       	call   1858 <mem_set>
    17a8:	90                   	nop
    17a9:	c9                   	leave
    17aa:	c3                   	ret

00000000000017ab <mem_cmp>:
    17ab:	f3 0f 1e fa          	endbr64
    17af:	55                   	push   rbp
    17b0:	48 89 e5             	mov    rbp,rsp
    17b3:	48 89 7d e8          	mov    QWORD PTR [rbp-0x18],rdi
    17b7:	48 89 75 e0          	mov    QWORD PTR [rbp-0x20],rsi
    17bb:	48 89 55 d8          	mov    QWORD PTR [rbp-0x28],rdx
    17bf:	c7 45 fc 00 00 00 00 	mov    DWORD PTR [rbp-0x4],0x0
    17c6:	eb 2f                	jmp    17f7 <mem_cmp+0x4c>
    17c8:	8b 45 fc             	mov    eax,DWORD PTR [rbp-0x4]
    17cb:	48 63 d0             	movsxd rdx,eax
    17ce:	48 8b 45 e8          	mov    rax,QWORD PTR [rbp-0x18]
    17d2:	48 01 d0             	add    rax,rdx
    17d5:	0f b6 10             	movzx  edx,BYTE PTR [rax]
    17d8:	8b 45 fc             	mov    eax,DWORD PTR [rbp-0x4]
    17db:	48 63 c8             	movsxd rcx,eax
    17de:	48 8b 45 e0          	mov    rax,QWORD PTR [rbp-0x20]
    17e2:	48 01 c8             	add    rax,rcx
    17e5:	0f b6 00             	movzx  eax,BYTE PTR [rax]
    17e8:	38 c2                	cmp    dl,al
    17ea:	74 07                	je     17f3 <mem_cmp+0x48>
    17ec:	b8 00 00 00 00       	mov    eax,0x0
    17f1:	eb 14                	jmp    1807 <mem_cmp+0x5c>
    17f3:	83 45 fc 01          	add    DWORD PTR [rbp-0x4],0x1
    17f7:	8b 45 fc             	mov    eax,DWORD PTR [rbp-0x4]
    17fa:	48 98                	cdqe
    17fc:	48 3b 45 d8          	cmp    rax,QWORD PTR [rbp-0x28]
    1800:	72 c6                	jb     17c8 <mem_cmp+0x1d>
    1802:	b8 01 00 00 00       	mov    eax,0x1
    1807:	5d                   	pop    rbp
    1808:	c3                   	ret

0000000000001809 <mem_cpy>:
    1809:	f3 0f 1e fa          	endbr64
    180d:	55                   	push   rbp
    180e:	48 89 e5             	mov    rbp,rsp
    1811:	48 89 7d e8          	mov    QWORD PTR [rbp-0x18],rdi
    1815:	48 89 75 e0          	mov    QWORD PTR [rbp-0x20],rsi
    1819:	48 89 55 d8          	mov    QWORD PTR [rbp-0x28],rdx
    181d:	c7 45 fc 00 00 00 00 	mov    DWORD PTR [rbp-0x4],0x0
    1824:	eb 23                	jmp    1849 <mem_cpy+0x40>
    1826:	8b 45 fc             	mov    eax,DWORD PTR [rbp-0x4]
    1829:	48 63 d0             	movsxd rdx,eax
    182c:	48 8b 45 e0          	mov    rax,QWORD PTR [rbp-0x20]
    1830:	48 01 d0             	add    rax,rdx
    1833:	8b 55 fc             	mov    edx,DWORD PTR [rbp-0x4]
    1836:	48 63 ca             	movsxd rcx,edx
    1839:	48 8b 55 e8          	mov    rdx,QWORD PTR [rbp-0x18]
    183d:	48 01 ca             	add    rdx,rcx
    1840:	0f b6 00             	movzx  eax,BYTE PTR [rax]
    1843:	88 02                	mov    BYTE PTR [rdx],al
    1845:	83 45 fc 01          	add    DWORD PTR [rbp-0x4],0x1
    1849:	8b 45 fc             	mov    eax,DWORD PTR [rbp-0x4]
    184c:	48 98                	cdqe
    184e:	48 3b 45 d8          	cmp    rax,QWORD PTR [rbp-0x28]
    1852:	72 d2                	jb     1826 <mem_cpy+0x1d>
    1854:	90                   	nop
    1855:	90                   	nop
    1856:	5d                   	pop    rbp
    1857:	c3                   	ret

0000000000001858 <mem_set>:
    1858:	f3 0f 1e fa          	endbr64
    185c:	55                   	push   rbp
    185d:	48 89 e5             	mov    rbp,rsp
    1860:	48 89 7d e8          	mov    QWORD PTR [rbp-0x18],rdi
    1864:	89 f0                	mov    eax,esi
    1866:	48 89 55 d8          	mov    QWORD PTR [rbp-0x28],rdx
    186a:	88 45 e4             	mov    BYTE PTR [rbp-0x1c],al
    186d:	c7 45 fc 00 00 00 00 	mov    DWORD PTR [rbp-0x4],0x0
    1874:	eb 17                	jmp    188d <mem_set+0x35>
    1876:	8b 45 fc             	mov    eax,DWORD PTR [rbp-0x4]
    1879:	48 63 d0             	movsxd rdx,eax
    187c:	48 8b 45 e8          	mov    rax,QWORD PTR [rbp-0x18]
    1880:	48 01 c2             	add    rdx,rax
    1883:	0f b6 45 e4          	movzx  eax,BYTE PTR [rbp-0x1c]
    1887:	88 02                	mov    BYTE PTR [rdx],al
    1889:	83 45 fc 01          	add    DWORD PTR [rbp-0x4],0x1
    188d:	8b 45 fc             	mov    eax,DWORD PTR [rbp-0x4]
    1890:	48 98                	cdqe
    1892:	48 3b 45 d8          	cmp    rax,QWORD PTR [rbp-0x28]
    1896:	72 de                	jb     1876 <mem_set+0x1e>
    1898:	90                   	nop
    1899:	90                   	nop
    189a:	5d                   	pop    rbp
    189b:	c3                   	ret

000000000000189c <ptr_to_str>:
    189c:	f3 0f 1e fa          	endbr64
    18a0:	55                   	push   rbp
    18a1:	48 89 e5             	mov    rbp,rsp
    18a4:	48 89 7d e8          	mov    QWORD PTR [rbp-0x18],rdi
    18a8:	48 89 75 e0          	mov    QWORD PTR [rbp-0x20],rsi
    18ac:	48 8b 45 e8          	mov    rax,QWORD PTR [rbp-0x18]
    18b0:	48 89 45 f0          	mov    QWORD PTR [rbp-0x10],rax
    18b4:	48 8b 45 e0          	mov    rax,QWORD PTR [rbp-0x20]
    18b8:	c6 00 30             	mov    BYTE PTR [rax],0x30
    18bb:	48 8b 45 e0          	mov    rax,QWORD PTR [rbp-0x20]
    18bf:	48 83 c0 01          	add    rax,0x1
    18c3:	c6 00 78             	mov    BYTE PTR [rax],0x78
    18c6:	c7 45 fc 02 00 00 00 	mov    DWORD PTR [rbp-0x4],0x2
    18cd:	c7 45 f8 0f 00 00 00 	mov    DWORD PTR [rbp-0x8],0xf
    18d4:	eb 3c                	jmp    1912 <ptr_to_str+0x76>
    18d6:	8b 45 f8             	mov    eax,DWORD PTR [rbp-0x8]
    18d9:	c1 e0 02             	shl    eax,0x2
    18dc:	48 8b 55 f0          	mov    rdx,QWORD PTR [rbp-0x10]
    18e0:	89 c1                	mov    ecx,eax
    18e2:	48 d3 ea             	shr    rdx,cl
    18e5:	48 89 d0             	mov    rax,rdx
    18e8:	83 e0 0f             	and    eax,0xf
    18eb:	48 89 c1             	mov    rcx,rax
    18ee:	8b 45 fc             	mov    eax,DWORD PTR [rbp-0x4]
    18f1:	8d 50 01             	lea    edx,[rax+0x1]
    18f4:	89 55 fc             	mov    DWORD PTR [rbp-0x4],edx
    18f7:	48 63 d0             	movsxd rdx,eax
    18fa:	48 8b 45 e0          	mov    rax,QWORD PTR [rbp-0x20]
    18fe:	48 01 c2             	add    rdx,rax
    1901:	48 8d 05 68 27 00 00 	lea    rax,[rip+0x2768]        # 4070 <hex.0>
    1908:	0f b6 04 01          	movzx  eax,BYTE PTR [rcx+rax*1]
    190c:	88 02                	mov    BYTE PTR [rdx],al
    190e:	83 6d f8 01          	sub    DWORD PTR [rbp-0x8],0x1
    1912:	83 7d f8 00          	cmp    DWORD PTR [rbp-0x8],0x0
    1916:	79 be                	jns    18d6 <ptr_to_str+0x3a>
    1918:	8b 45 fc             	mov    eax,DWORD PTR [rbp-0x4]
    191b:	48 63 d0             	movsxd rdx,eax
    191e:	48 8b 45 e0          	mov    rax,QWORD PTR [rbp-0x20]
    1922:	48 01 d0             	add    rax,rdx
    1925:	c6 00 00             	mov    BYTE PTR [rax],0x0
    1928:	90                   	nop
    1929:	5d                   	pop    rbp
    192a:	c3                   	ret

000000000000192b <_int_to_str>:
    192b:	f3 0f 1e fa          	endbr64
    192f:	55                   	push   rbp
    1930:	48 89 e5             	mov    rbp,rsp
    1933:	48 81 ec c0 00 00 00 	sub    rsp,0xc0
    193a:	89 bd 4c ff ff ff    	mov    DWORD PTR [rbp-0xb4],edi
    1940:	8b 85 4c ff ff ff    	mov    eax,DWORD PTR [rbp-0xb4]
    1946:	89 45 fc             	mov    DWORD PTR [rbp-0x4],eax
    1949:	c7 45 f8 00 00 00 00 	mov    DWORD PTR [rbp-0x8],0x0
    1950:	48 c7 85 50 ff ff ff 	mov    QWORD PTR [rbp-0xb0],0x0
    1957:	00 00 00 00 
    195b:	48 c7 85 58 ff ff ff 	mov    QWORD PTR [rbp-0xa8],0x0
    1962:	00 00 00 00 
    1966:	48 c7 85 60 ff ff ff 	mov    QWORD PTR [rbp-0xa0],0x0
    196d:	00 00 00 00 
    1971:	48 c7 85 68 ff ff ff 	mov    QWORD PTR [rbp-0x98],0x0
    1978:	00 00 00 00 
    197c:	48 c7 85 70 ff ff ff 	mov    QWORD PTR [rbp-0x90],0x0
    1983:	00 00 00 00 
    1987:	48 c7 85 78 ff ff ff 	mov    QWORD PTR [rbp-0x88],0x0
    198e:	00 00 00 00 
    1992:	48 c7 45 80 00 00 00 	mov    QWORD PTR [rbp-0x80],0x0
    1999:	00 
    199a:	48 c7 45 88 00 00 00 	mov    QWORD PTR [rbp-0x78],0x0
    19a1:	00 
    19a2:	48 c7 45 90 00 00 00 	mov    QWORD PTR [rbp-0x70],0x0
    19a9:	00 
    19aa:	48 c7 45 98 00 00 00 	mov    QWORD PTR [rbp-0x68],0x0
    19b1:	00 
    19b2:	48 c7 45 a0 00 00 00 	mov    QWORD PTR [rbp-0x60],0x0
    19b9:	00 
    19ba:	48 c7 45 a8 00 00 00 	mov    QWORD PTR [rbp-0x58],0x0
    19c1:	00 
    19c2:	48 c7 45 b0 00 00 00 	mov    QWORD PTR [rbp-0x50],0x0
    19c9:	00 
    19ca:	48 c7 45 b8 00 00 00 	mov    QWORD PTR [rbp-0x48],0x0
    19d1:	00 
    19d2:	48 c7 45 c0 00 00 00 	mov    QWORD PTR [rbp-0x40],0x0
    19d9:	00 
    19da:	48 c7 45 c8 00 00 00 	mov    QWORD PTR [rbp-0x38],0x0
    19e1:	00 
    19e2:	48 c7 45 d0 00 00 00 	mov    QWORD PTR [rbp-0x30],0x0
    19e9:	00 
    19ea:	48 c7 45 d8 00 00 00 	mov    QWORD PTR [rbp-0x28],0x0
    19f1:	00 
    19f2:	48 c7 45 de 00 00 00 	mov    QWORD PTR [rbp-0x22],0x0
    19f9:	00 
    19fa:	eb 61                	jmp    1a5d <_int_to_str+0x132>
    19fc:	8b 55 fc             	mov    edx,DWORD PTR [rbp-0x4]
    19ff:	48 63 c2             	movsxd rax,edx
    1a02:	48 69 c0 67 66 66 66 	imul   rax,rax,0x66666667
    1a09:	48 c1 e8 20          	shr    rax,0x20
    1a0d:	89 c1                	mov    ecx,eax
    1a0f:	c1 f9 02             	sar    ecx,0x2
    1a12:	89 d0                	mov    eax,edx
    1a14:	c1 f8 1f             	sar    eax,0x1f
    1a17:	29 c1                	sub    ecx,eax
    1a19:	89 c8                	mov    eax,ecx
    1a1b:	c1 e0 02             	shl    eax,0x2
    1a1e:	01 c8                	add    eax,ecx
    1a20:	01 c0                	add    eax,eax
    1a22:	89 d1                	mov    ecx,edx
    1a24:	29 c1                	sub    ecx,eax
    1a26:	89 c8                	mov    eax,ecx
    1a28:	8d 48 30             	lea    ecx,[rax+0x30]
    1a2b:	8b 45 f8             	mov    eax,DWORD PTR [rbp-0x8]
    1a2e:	8d 50 01             	lea    edx,[rax+0x1]
    1a31:	89 55 f8             	mov    DWORD PTR [rbp-0x8],edx
    1a34:	89 ca                	mov    edx,ecx
    1a36:	48 98                	cdqe
    1a38:	88 94 05 50 ff ff ff 	mov    BYTE PTR [rbp+rax*1-0xb0],dl
    1a3f:	8b 45 fc             	mov    eax,DWORD PTR [rbp-0x4]
    1a42:	48 63 d0             	movsxd rdx,eax
    1a45:	48 69 d2 67 66 66 66 	imul   rdx,rdx,0x66666667
    1a4c:	48 c1 ea 20          	shr    rdx,0x20
    1a50:	89 d1                	mov    ecx,edx
    1a52:	c1 f9 02             	sar    ecx,0x2
    1a55:	99                   	cdq
    1a56:	89 c8                	mov    eax,ecx
    1a58:	29 d0                	sub    eax,edx
    1a5a:	89 45 fc             	mov    DWORD PTR [rbp-0x4],eax
    1a5d:	83 7d fc 00          	cmp    DWORD PTR [rbp-0x4],0x0
    1a61:	75 99                	jne    19fc <_int_to_str+0xd1>
    1a63:	c7 45 f4 00 00 00 00 	mov    DWORD PTR [rbp-0xc],0x0
    1a6a:	eb 48                	jmp    1ab4 <_int_to_str+0x189>
    1a6c:	8b 45 f4             	mov    eax,DWORD PTR [rbp-0xc]
    1a6f:	48 98                	cdqe
    1a71:	0f b6 84 05 50 ff ff 	movzx  eax,BYTE PTR [rbp+rax*1-0xb0]
    1a78:	ff 
    1a79:	88 45 f3             	mov    BYTE PTR [rbp-0xd],al
    1a7c:	83 6d f8 01          	sub    DWORD PTR [rbp-0x8],0x1
    1a80:	8b 45 f8             	mov    eax,DWORD PTR [rbp-0x8]
    1a83:	48 98                	cdqe
    1a85:	0f b6 84 05 50 ff ff 	movzx  eax,BYTE PTR [rbp+rax*1-0xb0]
    1a8c:	ff 
    1a8d:	88 45 f2             	mov    BYTE PTR [rbp-0xe],al
    1a90:	8b 45 f4             	mov    eax,DWORD PTR [rbp-0xc]
    1a93:	48 98                	cdqe
    1a95:	0f b6 55 f2          	movzx  edx,BYTE PTR [rbp-0xe]
    1a99:	88 94 05 50 ff ff ff 	mov    BYTE PTR [rbp+rax*1-0xb0],dl
    1aa0:	8b 45 f8             	mov    eax,DWORD PTR [rbp-0x8]
    1aa3:	48 98                	cdqe
    1aa5:	0f b6 55 f3          	movzx  edx,BYTE PTR [rbp-0xd]
    1aa9:	88 94 05 50 ff ff ff 	mov    BYTE PTR [rbp+rax*1-0xb0],dl
    1ab0:	83 45 f4 01          	add    DWORD PTR [rbp-0xc],0x1
    1ab4:	8b 45 f4             	mov    eax,DWORD PTR [rbp-0xc]
    1ab7:	3b 45 f8             	cmp    eax,DWORD PTR [rbp-0x8]
    1aba:	7c b0                	jl     1a6c <_int_to_str+0x141>
    1abc:	8b 45 f4             	mov    eax,DWORD PTR [rbp-0xc]
    1abf:	8d 50 01             	lea    edx,[rax+0x1]
    1ac2:	48 8d 85 50 ff ff ff 	lea    rax,[rbp-0xb0]
    1ac9:	89 d6                	mov    esi,edx
    1acb:	48 89 c7             	mov    rdi,rax
    1ace:	e8 c9 fb ff ff       	call   169c <to_heap>
    1ad3:	c9                   	leave
    1ad4:	c3                   	ret

0000000000001ad5 <int_to_str>:
    1ad5:	f3 0f 1e fa          	endbr64
    1ad9:	55                   	push   rbp
    1ada:	48 89 e5             	mov    rbp,rsp
    1add:	48 81 ec c0 00 00 00 	sub    rsp,0xc0
    1ae4:	89 bd 4c ff ff ff    	mov    DWORD PTR [rbp-0xb4],edi
    1aea:	8b 85 4c ff ff ff    	mov    eax,DWORD PTR [rbp-0xb4]
    1af0:	89 45 fc             	mov    DWORD PTR [rbp-0x4],eax
    1af3:	c7 45 f8 00 00 00 00 	mov    DWORD PTR [rbp-0x8],0x0
    1afa:	48 c7 85 50 ff ff ff 	mov    QWORD PTR [rbp-0xb0],0x0
    1b01:	00 00 00 00 
    1b05:	48 c7 85 58 ff ff ff 	mov    QWORD PTR [rbp-0xa8],0x0
    1b0c:	00 00 00 00 
    1b10:	48 c7 85 60 ff ff ff 	mov    QWORD PTR [rbp-0xa0],0x0
    1b17:	00 00 00 00 
    1b1b:	48 c7 85 68 ff ff ff 	mov    QWORD PTR [rbp-0x98],0x0
    1b22:	00 00 00 00 
    1b26:	48 c7 85 70 ff ff ff 	mov    QWORD PTR [rbp-0x90],0x0
    1b2d:	00 00 00 00 
    1b31:	48 c7 85 78 ff ff ff 	mov    QWORD PTR [rbp-0x88],0x0
    1b38:	00 00 00 00 
    1b3c:	48 c7 45 80 00 00 00 	mov    QWORD PTR [rbp-0x80],0x0
    1b43:	00 
    1b44:	48 c7 45 88 00 00 00 	mov    QWORD PTR [rbp-0x78],0x0
    1b4b:	00 
    1b4c:	48 c7 45 90 00 00 00 	mov    QWORD PTR [rbp-0x70],0x0
    1b53:	00 
    1b54:	48 c7 45 98 00 00 00 	mov    QWORD PTR [rbp-0x68],0x0
    1b5b:	00 
    1b5c:	48 c7 45 a0 00 00 00 	mov    QWORD PTR [rbp-0x60],0x0
    1b63:	00 
    1b64:	48 c7 45 a8 00 00 00 	mov    QWORD PTR [rbp-0x58],0x0
    1b6b:	00 
    1b6c:	48 c7 45 b0 00 00 00 	mov    QWORD PTR [rbp-0x50],0x0
    1b73:	00 
    1b74:	48 c7 45 b8 00 00 00 	mov    QWORD PTR [rbp-0x48],0x0
    1b7b:	00 
    1b7c:	48 c7 45 c0 00 00 00 	mov    QWORD PTR [rbp-0x40],0x0
    1b83:	00 
    1b84:	48 c7 45 c8 00 00 00 	mov    QWORD PTR [rbp-0x38],0x0
    1b8b:	00 
    1b8c:	48 c7 45 d0 00 00 00 	mov    QWORD PTR [rbp-0x30],0x0
    1b93:	00 
    1b94:	48 c7 45 d8 00 00 00 	mov    QWORD PTR [rbp-0x28],0x0
    1b9b:	00 
    1b9c:	48 c7 45 de 00 00 00 	mov    QWORD PTR [rbp-0x22],0x0
    1ba3:	00 
    1ba4:	eb 61                	jmp    1c07 <int_to_str+0x132>
    1ba6:	8b 55 fc             	mov    edx,DWORD PTR [rbp-0x4]
    1ba9:	48 63 c2             	movsxd rax,edx
    1bac:	48 69 c0 67 66 66 66 	imul   rax,rax,0x66666667
    1bb3:	48 c1 e8 20          	shr    rax,0x20
    1bb7:	89 c1                	mov    ecx,eax
    1bb9:	c1 f9 02             	sar    ecx,0x2
    1bbc:	89 d0                	mov    eax,edx
    1bbe:	c1 f8 1f             	sar    eax,0x1f
    1bc1:	29 c1                	sub    ecx,eax
    1bc3:	89 c8                	mov    eax,ecx
    1bc5:	c1 e0 02             	shl    eax,0x2
    1bc8:	01 c8                	add    eax,ecx
    1bca:	01 c0                	add    eax,eax
    1bcc:	89 d1                	mov    ecx,edx
    1bce:	29 c1                	sub    ecx,eax
    1bd0:	89 c8                	mov    eax,ecx
    1bd2:	8d 48 30             	lea    ecx,[rax+0x30]
    1bd5:	8b 45 f8             	mov    eax,DWORD PTR [rbp-0x8]
    1bd8:	8d 50 01             	lea    edx,[rax+0x1]
    1bdb:	89 55 f8             	mov    DWORD PTR [rbp-0x8],edx
    1bde:	89 ca                	mov    edx,ecx
    1be0:	48 98                	cdqe
    1be2:	88 94 05 50 ff ff ff 	mov    BYTE PTR [rbp+rax*1-0xb0],dl
    1be9:	8b 45 fc             	mov    eax,DWORD PTR [rbp-0x4]
    1bec:	48 63 d0             	movsxd rdx,eax
    1bef:	48 69 d2 67 66 66 66 	imul   rdx,rdx,0x66666667
    1bf6:	48 c1 ea 20          	shr    rdx,0x20
    1bfa:	89 d1                	mov    ecx,edx
    1bfc:	c1 f9 02             	sar    ecx,0x2
    1bff:	99                   	cdq
    1c00:	89 c8                	mov    eax,ecx
    1c02:	29 d0                	sub    eax,edx
    1c04:	89 45 fc             	mov    DWORD PTR [rbp-0x4],eax
    1c07:	83 7d fc 00          	cmp    DWORD PTR [rbp-0x4],0x0
    1c0b:	75 99                	jne    1ba6 <int_to_str+0xd1>
    1c0d:	c7 45 f4 00 00 00 00 	mov    DWORD PTR [rbp-0xc],0x0
    1c14:	eb 48                	jmp    1c5e <int_to_str+0x189>
    1c16:	8b 45 f4             	mov    eax,DWORD PTR [rbp-0xc]
    1c19:	48 98                	cdqe
    1c1b:	0f b6 84 05 50 ff ff 	movzx  eax,BYTE PTR [rbp+rax*1-0xb0]
    1c22:	ff 
    1c23:	88 45 f3             	mov    BYTE PTR [rbp-0xd],al
    1c26:	83 6d f8 01          	sub    DWORD PTR [rbp-0x8],0x1
    1c2a:	8b 45 f8             	mov    eax,DWORD PTR [rbp-0x8]
    1c2d:	48 98                	cdqe
    1c2f:	0f b6 84 05 50 ff ff 	movzx  eax,BYTE PTR [rbp+rax*1-0xb0]
    1c36:	ff 
    1c37:	88 45 f2             	mov    BYTE PTR [rbp-0xe],al
    1c3a:	8b 45 f4             	mov    eax,DWORD PTR [rbp-0xc]
    1c3d:	48 98                	cdqe
    1c3f:	0f b6 55 f2          	movzx  edx,BYTE PTR [rbp-0xe]
    1c43:	88 94 05 50 ff ff ff 	mov    BYTE PTR [rbp+rax*1-0xb0],dl
    1c4a:	8b 45 f8             	mov    eax,DWORD PTR [rbp-0x8]
    1c4d:	48 98                	cdqe
    1c4f:	0f b6 55 f3          	movzx  edx,BYTE PTR [rbp-0xd]
    1c53:	88 94 05 50 ff ff ff 	mov    BYTE PTR [rbp+rax*1-0xb0],dl
    1c5a:	83 45 f4 01          	add    DWORD PTR [rbp-0xc],0x1
    1c5e:	8b 45 f4             	mov    eax,DWORD PTR [rbp-0xc]
    1c61:	3b 45 f8             	cmp    eax,DWORD PTR [rbp-0x8]
    1c64:	7c b0                	jl     1c16 <int_to_str+0x141>
    1c66:	83 45 f4 01          	add    DWORD PTR [rbp-0xc],0x1
    1c6a:	81 7d f4 96 00 00 00 	cmp    DWORD PTR [rbp-0xc],0x96
    1c71:	74 10                	je     1c83 <int_to_str+0x1ae>
    1c73:	8b 45 f4             	mov    eax,DWORD PTR [rbp-0xc]
    1c76:	83 c0 01             	add    eax,0x1
    1c79:	48 98                	cdqe
    1c7b:	c6 84 05 50 ff ff ff 	mov    BYTE PTR [rbp+rax*1-0xb0],0x0
    1c82:	00 
    1c83:	48 8d 85 50 ff ff ff 	lea    rax,[rbp-0xb0]
    1c8a:	48 89 c7             	mov    rdi,rax
    1c8d:	e8 78 04 00 00       	call   210a <str_dup>
    1c92:	c9                   	leave
    1c93:	c3                   	ret

0000000000001c94 <_sprintf>:
    1c94:	f3 0f 1e fa          	endbr64
    1c98:	55                   	push   rbp
    1c99:	48 89 e5             	mov    rbp,rsp
    1c9c:	48 83 ec 70          	sub    rsp,0x70
    1ca0:	48 89 7d a8          	mov    QWORD PTR [rbp-0x58],rdi
    1ca4:	48 89 75 a0          	mov    QWORD PTR [rbp-0x60],rsi
    1ca8:	48 89 55 98          	mov    QWORD PTR [rbp-0x68],rdx
    1cac:	c7 45 fc 00 00 00 00 	mov    DWORD PTR [rbp-0x4],0x0
    1cb3:	c7 45 f8 00 00 00 00 	mov    DWORD PTR [rbp-0x8],0x0
    1cba:	c7 45 f4 00 00 00 00 	mov    DWORD PTR [rbp-0xc],0x0
    1cc1:	e9 ef 02 00 00       	jmp    1fb5 <_sprintf+0x321>
    1cc6:	8b 45 f4             	mov    eax,DWORD PTR [rbp-0xc]
    1cc9:	48 63 d0             	movsxd rdx,eax
    1ccc:	48 8b 45 a0          	mov    rax,QWORD PTR [rbp-0x60]
    1cd0:	48 01 d0             	add    rax,rdx
    1cd3:	0f b6 00             	movzx  eax,BYTE PTR [rax]
    1cd6:	3c 25                	cmp    al,0x25
    1cd8:	0f 85 9e 00 00 00    	jne    1d7c <_sprintf+0xe8>
    1cde:	8b 45 f4             	mov    eax,DWORD PTR [rbp-0xc]
    1ce1:	48 98                	cdqe
    1ce3:	48 8d 50 01          	lea    rdx,[rax+0x1]
    1ce7:	48 8b 45 a0          	mov    rax,QWORD PTR [rbp-0x60]
    1ceb:	48 01 d0             	add    rax,rdx
    1cee:	0f b6 00             	movzx  eax,BYTE PTR [rax]
    1cf1:	3c 63                	cmp    al,0x63
    1cf3:	0f 85 83 00 00 00    	jne    1d7c <_sprintf+0xe8>
    1cf9:	8b 45 fc             	mov    eax,DWORD PTR [rbp-0x4]
    1cfc:	48 98                	cdqe
    1cfe:	48 8d 14 c5 00 00 00 	lea    rdx,[rax*8+0x0]
    1d05:	00 
    1d06:	48 8b 45 98          	mov    rax,QWORD PTR [rbp-0x68]
    1d0a:	48 01 d0             	add    rax,rdx
    1d0d:	48 8b 00             	mov    rax,QWORD PTR [rax]
    1d10:	8b 00                	mov    eax,DWORD PTR [rax]
    1d12:	0f be c0             	movsx  eax,al
    1d15:	89 c7                	mov    edi,eax
    1d17:	e8 79 16 00 00       	call   3395 <is_ascii>
    1d1c:	85 c0                	test   eax,eax
    1d1e:	75 1c                	jne    1d3c <_sprintf+0xa8>
    1d20:	48 8d 05 19 23 00 00 	lea    rax,[rip+0x2319]        # 4040 <_start+0x776>
    1d27:	48 89 c7             	mov    rdi,rax
    1d2a:	e8 80 f8 ff ff       	call   15af <println>
    1d2f:	83 45 f4 01          	add    DWORD PTR [rbp-0xc],0x1
    1d33:	83 45 fc 01          	add    DWORD PTR [rbp-0x4],0x1
    1d37:	e9 75 02 00 00       	jmp    1fb1 <_sprintf+0x31d>
    1d3c:	8b 45 fc             	mov    eax,DWORD PTR [rbp-0x4]
    1d3f:	48 98                	cdqe
    1d41:	48 8d 14 c5 00 00 00 	lea    rdx,[rax*8+0x0]
    1d48:	00 
    1d49:	48 8b 45 98          	mov    rax,QWORD PTR [rbp-0x68]
    1d4d:	48 01 d0             	add    rax,rdx
    1d50:	48 8b 00             	mov    rax,QWORD PTR [rax]
    1d53:	8b 00                	mov    eax,DWORD PTR [rax]
    1d55:	8d 48 30             	lea    ecx,[rax+0x30]
    1d58:	8b 45 f8             	mov    eax,DWORD PTR [rbp-0x8]
    1d5b:	8d 50 01             	lea    edx,[rax+0x1]
    1d5e:	89 55 f8             	mov    DWORD PTR [rbp-0x8],edx
    1d61:	48 63 d0             	movsxd rdx,eax
    1d64:	48 8b 45 a8          	mov    rax,QWORD PTR [rbp-0x58]
    1d68:	48 01 d0             	add    rax,rdx
    1d6b:	89 ca                	mov    edx,ecx
    1d6d:	88 10                	mov    BYTE PTR [rax],dl
    1d6f:	83 45 f4 01          	add    DWORD PTR [rbp-0xc],0x1
    1d73:	83 45 fc 01          	add    DWORD PTR [rbp-0x4],0x1
    1d77:	e9 35 02 00 00       	jmp    1fb1 <_sprintf+0x31d>
    1d7c:	8b 45 f4             	mov    eax,DWORD PTR [rbp-0xc]
    1d7f:	48 63 d0             	movsxd rdx,eax
    1d82:	48 8b 45 a0          	mov    rax,QWORD PTR [rbp-0x60]
    1d86:	48 01 d0             	add    rax,rdx
    1d89:	0f b6 00             	movzx  eax,BYTE PTR [rax]
    1d8c:	3c 25                	cmp    al,0x25
    1d8e:	0f 85 9c 00 00 00    	jne    1e30 <_sprintf+0x19c>
    1d94:	8b 45 f4             	mov    eax,DWORD PTR [rbp-0xc]
    1d97:	48 98                	cdqe
    1d99:	48 8d 50 01          	lea    rdx,[rax+0x1]
    1d9d:	48 8b 45 a0          	mov    rax,QWORD PTR [rbp-0x60]
    1da1:	48 01 d0             	add    rax,rdx
    1da4:	0f b6 00             	movzx  eax,BYTE PTR [rax]
    1da7:	3c 73                	cmp    al,0x73
    1da9:	0f 85 81 00 00 00    	jne    1e30 <_sprintf+0x19c>
    1daf:	8b 45 fc             	mov    eax,DWORD PTR [rbp-0x4]
    1db2:	48 98                	cdqe
    1db4:	48 8d 14 c5 00 00 00 	lea    rdx,[rax*8+0x0]
    1dbb:	00 
    1dbc:	48 8b 45 98          	mov    rax,QWORD PTR [rbp-0x68]
    1dc0:	48 01 d0             	add    rax,rdx
    1dc3:	48 8b 00             	mov    rax,QWORD PTR [rax]
    1dc6:	48 89 45 e8          	mov    QWORD PTR [rbp-0x18],rax
    1dca:	48 83 7d e8 00       	cmp    QWORD PTR [rbp-0x18],0x0
    1dcf:	75 0b                	jne    1ddc <_sprintf+0x148>
    1dd1:	48 8d 05 81 22 00 00 	lea    rax,[rip+0x2281]        # 4059 <_start+0x78f>
    1dd8:	48 89 45 e8          	mov    QWORD PTR [rbp-0x18],rax
    1ddc:	c7 45 e4 00 00 00 00 	mov    DWORD PTR [rbp-0x1c],0x0
    1de3:	eb 2a                	jmp    1e0f <_sprintf+0x17b>
    1de5:	8b 45 e4             	mov    eax,DWORD PTR [rbp-0x1c]
    1de8:	48 63 d0             	movsxd rdx,eax
    1deb:	48 8b 45 e8          	mov    rax,QWORD PTR [rbp-0x18]
    1def:	48 8d 0c 02          	lea    rcx,[rdx+rax*1]
    1df3:	8b 45 f8             	mov    eax,DWORD PTR [rbp-0x8]
    1df6:	8d 50 01             	lea    edx,[rax+0x1]
    1df9:	89 55 f8             	mov    DWORD PTR [rbp-0x8],edx
    1dfc:	48 63 d0             	movsxd rdx,eax
    1dff:	48 8b 45 a8          	mov    rax,QWORD PTR [rbp-0x58]
    1e03:	48 01 c2             	add    rdx,rax
    1e06:	0f b6 01             	movzx  eax,BYTE PTR [rcx]
    1e09:	88 02                	mov    BYTE PTR [rdx],al
    1e0b:	83 45 e4 01          	add    DWORD PTR [rbp-0x1c],0x1
    1e0f:	8b 45 e4             	mov    eax,DWORD PTR [rbp-0x1c]
    1e12:	48 63 d0             	movsxd rdx,eax
    1e15:	48 8b 45 e8          	mov    rax,QWORD PTR [rbp-0x18]
    1e19:	48 01 d0             	add    rax,rdx
    1e1c:	0f b6 00             	movzx  eax,BYTE PTR [rax]
    1e1f:	84 c0                	test   al,al
    1e21:	75 c2                	jne    1de5 <_sprintf+0x151>
    1e23:	83 45 fc 01          	add    DWORD PTR [rbp-0x4],0x1
    1e27:	83 45 f4 01          	add    DWORD PTR [rbp-0xc],0x1
    1e2b:	e9 81 01 00 00       	jmp    1fb1 <_sprintf+0x31d>
    1e30:	8b 45 f4             	mov    eax,DWORD PTR [rbp-0xc]
    1e33:	48 63 d0             	movsxd rdx,eax
    1e36:	48 8b 45 a0          	mov    rax,QWORD PTR [rbp-0x60]
    1e3a:	48 01 d0             	add    rax,rdx
    1e3d:	0f b6 00             	movzx  eax,BYTE PTR [rax]
    1e40:	3c 25                	cmp    al,0x25
    1e42:	0f 85 aa 00 00 00    	jne    1ef2 <_sprintf+0x25e>
    1e48:	8b 45 f4             	mov    eax,DWORD PTR [rbp-0xc]
    1e4b:	48 98                	cdqe
    1e4d:	48 8d 50 01          	lea    rdx,[rax+0x1]
    1e51:	48 8b 45 a0          	mov    rax,QWORD PTR [rbp-0x60]
    1e55:	48 01 d0             	add    rax,rdx
    1e58:	0f b6 00             	movzx  eax,BYTE PTR [rax]
    1e5b:	3c 64                	cmp    al,0x64
    1e5d:	0f 85 8f 00 00 00    	jne    1ef2 <_sprintf+0x25e>
    1e63:	8b 45 fc             	mov    eax,DWORD PTR [rbp-0x4]
    1e66:	48 98                	cdqe
    1e68:	48 8d 14 c5 00 00 00 	lea    rdx,[rax*8+0x0]
    1e6f:	00 
    1e70:	48 8b 45 98          	mov    rax,QWORD PTR [rbp-0x68]
    1e74:	48 01 d0             	add    rax,rdx
    1e77:	48 8b 00             	mov    rax,QWORD PTR [rax]
    1e7a:	8b 00                	mov    eax,DWORD PTR [rax]
    1e7c:	89 45 d8             	mov    DWORD PTR [rbp-0x28],eax
    1e7f:	8b 45 d8             	mov    eax,DWORD PTR [rbp-0x28]
    1e82:	89 c7                	mov    edi,eax
    1e84:	e8 4c fc ff ff       	call   1ad5 <int_to_str>
    1e89:	48 89 45 d0          	mov    QWORD PTR [rbp-0x30],rax
    1e8d:	c7 45 e0 00 00 00 00 	mov    DWORD PTR [rbp-0x20],0x0
    1e94:	eb 2a                	jmp    1ec0 <_sprintf+0x22c>
    1e96:	8b 45 e0             	mov    eax,DWORD PTR [rbp-0x20]
    1e99:	48 63 d0             	movsxd rdx,eax
    1e9c:	48 8b 45 d0          	mov    rax,QWORD PTR [rbp-0x30]
    1ea0:	48 8d 0c 02          	lea    rcx,[rdx+rax*1]
    1ea4:	8b 45 f8             	mov    eax,DWORD PTR [rbp-0x8]
    1ea7:	8d 50 01             	lea    edx,[rax+0x1]
    1eaa:	89 55 f8             	mov    DWORD PTR [rbp-0x8],edx
    1ead:	48 63 d0             	movsxd rdx,eax
    1eb0:	48 8b 45 a8          	mov    rax,QWORD PTR [rbp-0x58]
    1eb4:	48 01 c2             	add    rdx,rax
    1eb7:	0f b6 01             	movzx  eax,BYTE PTR [rcx]
    1eba:	88 02                	mov    BYTE PTR [rdx],al
    1ebc:	83 45 e0 01          	add    DWORD PTR [rbp-0x20],0x1
    1ec0:	8b 45 e0             	mov    eax,DWORD PTR [rbp-0x20]
    1ec3:	48 63 d0             	movsxd rdx,eax
    1ec6:	48 8b 45 d0          	mov    rax,QWORD PTR [rbp-0x30]
    1eca:	48 01 d0             	add    rax,rdx
    1ecd:	0f b6 00             	movzx  eax,BYTE PTR [rax]
    1ed0:	84 c0                	test   al,al
    1ed2:	75 c2                	jne    1e96 <_sprintf+0x202>
    1ed4:	48 8b 45 d0          	mov    rax,QWORD PTR [rbp-0x30]
    1ed8:	be 01 00 00 00       	mov    esi,0x1
    1edd:	48 89 c7             	mov    rdi,rax
    1ee0:	e8 5c 13 00 00       	call   3241 <pfree>
    1ee5:	83 45 fc 01          	add    DWORD PTR [rbp-0x4],0x1
    1ee9:	83 45 f4 01          	add    DWORD PTR [rbp-0xc],0x1
    1eed:	e9 bf 00 00 00       	jmp    1fb1 <_sprintf+0x31d>
    1ef2:	8b 45 f4             	mov    eax,DWORD PTR [rbp-0xc]
    1ef5:	48 63 d0             	movsxd rdx,eax
    1ef8:	48 8b 45 a0          	mov    rax,QWORD PTR [rbp-0x60]
    1efc:	48 01 d0             	add    rax,rdx
    1eff:	0f b6 00             	movzx  eax,BYTE PTR [rax]
    1f02:	3c 25                	cmp    al,0x25
    1f04:	0f 85 81 00 00 00    	jne    1f8b <_sprintf+0x2f7>
    1f0a:	8b 45 f4             	mov    eax,DWORD PTR [rbp-0xc]
    1f0d:	48 98                	cdqe
    1f0f:	48 8d 50 01          	lea    rdx,[rax+0x1]
    1f13:	48 8b 45 a0          	mov    rax,QWORD PTR [rbp-0x60]
    1f17:	48 01 d0             	add    rax,rdx
    1f1a:	0f b6 00             	movzx  eax,BYTE PTR [rax]
    1f1d:	3c 70                	cmp    al,0x70
    1f1f:	75 6a                	jne    1f8b <_sprintf+0x2f7>
    1f21:	8b 45 fc             	mov    eax,DWORD PTR [rbp-0x4]
    1f24:	48 98                	cdqe
    1f26:	48 8d 14 c5 00 00 00 	lea    rdx,[rax*8+0x0]
    1f2d:	00 
    1f2e:	48 8b 45 98          	mov    rax,QWORD PTR [rbp-0x68]
    1f32:	48 01 d0             	add    rax,rdx
    1f35:	48 8b 00             	mov    rax,QWORD PTR [rax]
    1f38:	48 8d 55 b0          	lea    rdx,[rbp-0x50]
    1f3c:	48 89 d6             	mov    rsi,rdx
    1f3f:	48 89 c7             	mov    rdi,rax
    1f42:	e8 55 f9 ff ff       	call   189c <ptr_to_str>
    1f47:	c7 45 dc 00 00 00 00 	mov    DWORD PTR [rbp-0x24],0x0
    1f4e:	eb 23                	jmp    1f73 <_sprintf+0x2df>
    1f50:	8b 45 f8             	mov    eax,DWORD PTR [rbp-0x8]
    1f53:	8d 50 01             	lea    edx,[rax+0x1]
    1f56:	89 55 f8             	mov    DWORD PTR [rbp-0x8],edx
    1f59:	48 63 d0             	movsxd rdx,eax
    1f5c:	48 8b 45 a8          	mov    rax,QWORD PTR [rbp-0x58]
    1f60:	48 01 c2             	add    rdx,rax
    1f63:	8b 45 dc             	mov    eax,DWORD PTR [rbp-0x24]
    1f66:	48 98                	cdqe
    1f68:	0f b6 44 05 b0       	movzx  eax,BYTE PTR [rbp+rax*1-0x50]
    1f6d:	88 02                	mov    BYTE PTR [rdx],al
    1f6f:	83 45 dc 01          	add    DWORD PTR [rbp-0x24],0x1
    1f73:	8b 45 dc             	mov    eax,DWORD PTR [rbp-0x24]
    1f76:	48 98                	cdqe
    1f78:	0f b6 44 05 b0       	movzx  eax,BYTE PTR [rbp+rax*1-0x50]
    1f7d:	84 c0                	test   al,al
    1f7f:	75 cf                	jne    1f50 <_sprintf+0x2bc>
    1f81:	83 45 fc 01          	add    DWORD PTR [rbp-0x4],0x1
    1f85:	83 45 f4 01          	add    DWORD PTR [rbp-0xc],0x1
    1f89:	eb 26                	jmp    1fb1 <_sprintf+0x31d>
    1f8b:	8b 45 f4             	mov    eax,DWORD PTR [rbp-0xc]
    1f8e:	48 63 d0             	movsxd rdx,eax
    1f91:	48 8b 45 a0          	mov    rax,QWORD PTR [rbp-0x60]
    1f95:	48 8d 0c 02          	lea    rcx,[rdx+rax*1]
    1f99:	8b 45 f8             	mov    eax,DWORD PTR [rbp-0x8]
    1f9c:	8d 50 01             	lea    edx,[rax+0x1]
    1f9f:	89 55 f8             	mov    DWORD PTR [rbp-0x8],edx
    1fa2:	48 63 d0             	movsxd rdx,eax
    1fa5:	48 8b 45 a8          	mov    rax,QWORD PTR [rbp-0x58]
    1fa9:	48 01 c2             	add    rdx,rax
    1fac:	0f b6 01             	movzx  eax,BYTE PTR [rcx]
    1faf:	88 02                	mov    BYTE PTR [rdx],al
    1fb1:	83 45 f4 01          	add    DWORD PTR [rbp-0xc],0x1
    1fb5:	8b 45 f4             	mov    eax,DWORD PTR [rbp-0xc]
    1fb8:	48 63 d0             	movsxd rdx,eax
    1fbb:	48 8b 45 a0          	mov    rax,QWORD PTR [rbp-0x60]
    1fbf:	48 01 d0             	add    rax,rdx
    1fc2:	0f b6 00             	movzx  eax,BYTE PTR [rax]
    1fc5:	84 c0                	test   al,al
    1fc7:	0f 85 f9 fc ff ff    	jne    1cc6 <_sprintf+0x32>
    1fcd:	8b 45 f8             	mov    eax,DWORD PTR [rbp-0x8]
    1fd0:	48 63 d0             	movsxd rdx,eax
    1fd3:	48 8b 45 a8          	mov    rax,QWORD PTR [rbp-0x58]
    1fd7:	48 01 d0             	add    rax,rdx
    1fda:	c6 00 00             	mov    BYTE PTR [rax],0x0
    1fdd:	90                   	nop
    1fde:	c9                   	leave
    1fdf:	c3                   	ret

0000000000001fe0 <str_append_int>:
    1fe0:	f3 0f 1e fa          	endbr64
    1fe4:	55                   	push   rbp
    1fe5:	48 89 e5             	mov    rbp,rsp
    1fe8:	48 81 ec 20 02 00 00 	sub    rsp,0x220
    1fef:	48 89 bd e8 fd ff ff 	mov    QWORD PTR [rbp-0x218],rdi
    1ff6:	89 b5 e4 fd ff ff    	mov    DWORD PTR [rbp-0x21c],esi
    1ffc:	8b 85 e4 fd ff ff    	mov    eax,DWORD PTR [rbp-0x21c]
    2002:	89 45 fc             	mov    DWORD PTR [rbp-0x4],eax
    2005:	c7 45 f8 00 00 00 00 	mov    DWORD PTR [rbp-0x8],0x0
    200c:	48 8d 95 f0 fd ff ff 	lea    rdx,[rbp-0x210]
    2013:	b8 00 00 00 00       	mov    eax,0x0
    2018:	b9 3e 00 00 00       	mov    ecx,0x3e
    201d:	48 89 d7             	mov    rdi,rdx
    2020:	f3 48 ab             	rep stos QWORD PTR es:[rdi],rax
    2023:	48 89 fa             	mov    rdx,rdi
    2026:	89 02                	mov    DWORD PTR [rdx],eax
    2028:	48 83 c2 04          	add    rdx,0x4
    202c:	eb 61                	jmp    208f <str_append_int+0xaf>
    202e:	8b 55 fc             	mov    edx,DWORD PTR [rbp-0x4]
    2031:	48 63 c2             	movsxd rax,edx
    2034:	48 69 c0 67 66 66 66 	imul   rax,rax,0x66666667
    203b:	48 c1 e8 20          	shr    rax,0x20
    203f:	89 c1                	mov    ecx,eax
    2041:	c1 f9 02             	sar    ecx,0x2
    2044:	89 d0                	mov    eax,edx
    2046:	c1 f8 1f             	sar    eax,0x1f
    2049:	29 c1                	sub    ecx,eax
    204b:	89 c8                	mov    eax,ecx
    204d:	c1 e0 02             	shl    eax,0x2
    2050:	01 c8                	add    eax,ecx
    2052:	01 c0                	add    eax,eax
    2054:	89 d1                	mov    ecx,edx
    2056:	29 c1                	sub    ecx,eax
    2058:	89 c8                	mov    eax,ecx
    205a:	8d 48 30             	lea    ecx,[rax+0x30]
    205d:	8b 45 f8             	mov    eax,DWORD PTR [rbp-0x8]
    2060:	8d 50 01             	lea    edx,[rax+0x1]
    2063:	89 55 f8             	mov    DWORD PTR [rbp-0x8],edx
    2066:	89 ca                	mov    edx,ecx
    2068:	48 98                	cdqe
    206a:	88 94 05 f0 fd ff ff 	mov    BYTE PTR [rbp+rax*1-0x210],dl
    2071:	8b 45 fc             	mov    eax,DWORD PTR [rbp-0x4]
    2074:	48 63 d0             	movsxd rdx,eax
    2077:	48 69 d2 67 66 66 66 	imul   rdx,rdx,0x66666667
    207e:	48 c1 ea 20          	shr    rdx,0x20
    2082:	89 d1                	mov    ecx,edx
    2084:	c1 f9 02             	sar    ecx,0x2
    2087:	99                   	cdq
    2088:	89 c8                	mov    eax,ecx
    208a:	29 d0                	sub    eax,edx
    208c:	89 45 fc             	mov    DWORD PTR [rbp-0x4],eax
    208f:	83 7d fc 00          	cmp    DWORD PTR [rbp-0x4],0x0
    2093:	75 99                	jne    202e <str_append_int+0x4e>
    2095:	c7 45 f4 00 00 00 00 	mov    DWORD PTR [rbp-0xc],0x0
    209c:	eb 48                	jmp    20e6 <str_append_int+0x106>
    209e:	8b 45 f4             	mov    eax,DWORD PTR [rbp-0xc]
    20a1:	48 98                	cdqe
    20a3:	0f b6 84 05 f0 fd ff 	movzx  eax,BYTE PTR [rbp+rax*1-0x210]
    20aa:	ff 
    20ab:	88 45 f3             	mov    BYTE PTR [rbp-0xd],al
    20ae:	83 6d f8 01          	sub    DWORD PTR [rbp-0x8],0x1
    20b2:	8b 45 f8             	mov    eax,DWORD PTR [rbp-0x8]
    20b5:	48 98                	cdqe
    20b7:	0f b6 84 05 f0 fd ff 	movzx  eax,BYTE PTR [rbp+rax*1-0x210]
    20be:	ff 
    20bf:	88 45 f2             	mov    BYTE PTR [rbp-0xe],al
    20c2:	8b 45 f4             	mov    eax,DWORD PTR [rbp-0xc]
    20c5:	48 98                	cdqe
    20c7:	0f b6 55 f2          	movzx  edx,BYTE PTR [rbp-0xe]
    20cb:	88 94 05 f0 fd ff ff 	mov    BYTE PTR [rbp+rax*1-0x210],dl
    20d2:	8b 45 f8             	mov    eax,DWORD PTR [rbp-0x8]
    20d5:	48 98                	cdqe
    20d7:	0f b6 55 f3          	movzx  edx,BYTE PTR [rbp-0xd]
    20db:	88 94 05 f0 fd ff ff 	mov    BYTE PTR [rbp+rax*1-0x210],dl
    20e2:	83 45 f4 01          	add    DWORD PTR [rbp-0xc],0x1
    20e6:	8b 45 f4             	mov    eax,DWORD PTR [rbp-0xc]
    20e9:	3b 45 f8             	cmp    eax,DWORD PTR [rbp-0x8]
    20ec:	7c b0                	jl     209e <str_append_int+0xbe>
    20ee:	48 8d 95 f0 fd ff ff 	lea    rdx,[rbp-0x210]
    20f5:	48 8b 85 e8 fd ff ff 	mov    rax,QWORD PTR [rbp-0x218]
    20fc:	48 89 d6             	mov    rsi,rdx
    20ff:	48 89 c7             	mov    rdi,rax
    2102:	e8 ff 00 00 00       	call   2206 <str_append>
    2107:	90                   	nop
    2108:	c9                   	leave
    2109:	c3                   	ret

000000000000210a <str_dup>:
    210a:	f3 0f 1e fa          	endbr64
    210e:	55                   	push   rbp
    210f:	48 89 e5             	mov    rbp,rsp
    2112:	48 83 ec 20          	sub    rsp,0x20
    2116:	48 89 7d e8          	mov    QWORD PTR [rbp-0x18],rdi
    211a:	48 8b 45 e8          	mov    rax,QWORD PTR [rbp-0x18]
    211e:	48 89 c7             	mov    rdi,rax
    2121:	e8 48 00 00 00       	call   216e <str_len>
    2126:	89 45 fc             	mov    DWORD PTR [rbp-0x4],eax
    2129:	8b 45 fc             	mov    eax,DWORD PTR [rbp-0x4]
    212c:	83 c0 01             	add    eax,0x1
    212f:	89 c6                	mov    esi,eax
    2131:	bf 00 00 00 00       	mov    edi,0x0
    2136:	e8 ab 0d 00 00       	call   2ee6 <allocate>
    213b:	48 89 45 f0          	mov    QWORD PTR [rbp-0x10],rax
    213f:	8b 45 fc             	mov    eax,DWORD PTR [rbp-0x4]
    2142:	48 63 d0             	movsxd rdx,eax
    2145:	48 8b 4d e8          	mov    rcx,QWORD PTR [rbp-0x18]
    2149:	48 8b 45 f0          	mov    rax,QWORD PTR [rbp-0x10]
    214d:	48 89 ce             	mov    rsi,rcx
    2150:	48 89 c7             	mov    rdi,rax
    2153:	e8 b1 f6 ff ff       	call   1809 <mem_cpy>
    2158:	8b 45 fc             	mov    eax,DWORD PTR [rbp-0x4]
    215b:	48 63 d0             	movsxd rdx,eax
    215e:	48 8b 45 f0          	mov    rax,QWORD PTR [rbp-0x10]
    2162:	48 01 d0             	add    rax,rdx
    2165:	c6 00 00             	mov    BYTE PTR [rax],0x0
    2168:	48 8b 45 f0          	mov    rax,QWORD PTR [rbp-0x10]
    216c:	c9                   	leave
    216d:	c3                   	ret

000000000000216e <str_len>:
    216e:	f3 0f 1e fa          	endbr64
    2172:	55                   	push   rbp
    2173:	48 89 e5             	mov    rbp,rsp
    2176:	48 89 7d e8          	mov    QWORD PTR [rbp-0x18],rdi
    217a:	48 83 7d e8 00       	cmp    QWORD PTR [rbp-0x18],0x0
    217f:	75 07                	jne    2188 <str_len+0x1a>
    2181:	b8 00 00 00 00       	mov    eax,0x0
    2186:	eb 2f                	jmp    21b7 <str_len+0x49>
    2188:	c7 45 fc 00 00 00 00 	mov    DWORD PTR [rbp-0x4],0x0
    218f:	c7 45 f8 00 00 00 00 	mov    DWORD PTR [rbp-0x8],0x0
    2196:	eb 08                	jmp    21a0 <str_len+0x32>
    2198:	83 45 fc 01          	add    DWORD PTR [rbp-0x4],0x1
    219c:	83 45 f8 01          	add    DWORD PTR [rbp-0x8],0x1
    21a0:	8b 45 f8             	mov    eax,DWORD PTR [rbp-0x8]
    21a3:	48 63 d0             	movsxd rdx,eax
    21a6:	48 8b 45 e8          	mov    rax,QWORD PTR [rbp-0x18]
    21aa:	48 01 d0             	add    rax,rdx
    21ad:	0f b6 00             	movzx  eax,BYTE PTR [rax]
    21b0:	84 c0                	test   al,al
    21b2:	75 e4                	jne    2198 <str_len+0x2a>
    21b4:	8b 45 fc             	mov    eax,DWORD PTR [rbp-0x4]
    21b7:	5d                   	pop    rbp
    21b8:	c3                   	ret

00000000000021b9 <str_cmp>:
    21b9:	f3 0f 1e fa          	endbr64
    21bd:	55                   	push   rbp
    21be:	48 89 e5             	mov    rbp,rsp
    21c1:	48 83 ec 10          	sub    rsp,0x10
    21c5:	48 89 7d f8          	mov    QWORD PTR [rbp-0x8],rdi
    21c9:	48 89 75 f0          	mov    QWORD PTR [rbp-0x10],rsi
    21cd:	48 83 7d f8 00       	cmp    QWORD PTR [rbp-0x8],0x0
    21d2:	74 07                	je     21db <str_cmp+0x22>
    21d4:	48 83 7d f0 00       	cmp    QWORD PTR [rbp-0x10],0x0
    21d9:	75 07                	jne    21e2 <str_cmp+0x29>
    21db:	b8 00 00 00 00       	mov    eax,0x0
    21e0:	eb 22                	jmp    2204 <str_cmp+0x4b>
    21e2:	48 8b 45 f8          	mov    rax,QWORD PTR [rbp-0x8]
    21e6:	48 89 c7             	mov    rdi,rax
    21e9:	e8 80 ff ff ff       	call   216e <str_len>
    21ee:	48 63 d0             	movsxd rdx,eax
    21f1:	48 8b 4d f0          	mov    rcx,QWORD PTR [rbp-0x10]
    21f5:	48 8b 45 f8          	mov    rax,QWORD PTR [rbp-0x8]
    21f9:	48 89 ce             	mov    rsi,rcx
    21fc:	48 89 c7             	mov    rdi,rax
    21ff:	e8 a7 f5 ff ff       	call   17ab <mem_cmp>
    2204:	c9                   	leave
    2205:	c3                   	ret

0000000000002206 <str_append>:
    2206:	f3 0f 1e fa          	endbr64
    220a:	55                   	push   rbp
    220b:	48 89 e5             	mov    rbp,rsp
    220e:	48 83 ec 20          	sub    rsp,0x20
    2212:	48 89 7d e8          	mov    QWORD PTR [rbp-0x18],rdi
    2216:	48 89 75 e0          	mov    QWORD PTR [rbp-0x20],rsi
    221a:	48 83 7d e8 00       	cmp    QWORD PTR [rbp-0x18],0x0
    221f:	74 07                	je     2228 <str_append+0x22>
    2221:	48 83 7d e0 00       	cmp    QWORD PTR [rbp-0x20],0x0
    2226:	75 07                	jne    222f <str_append+0x29>
    2228:	b8 00 00 00 00       	mov    eax,0x0
    222d:	eb 6b                	jmp    229a <str_append+0x94>
    222f:	48 8b 45 e8          	mov    rax,QWORD PTR [rbp-0x18]
    2233:	48 89 c7             	mov    rdi,rax
    2236:	e8 33 ff ff ff       	call   216e <str_len>
    223b:	89 45 fc             	mov    DWORD PTR [rbp-0x4],eax
    223e:	c7 45 f8 00 00 00 00 	mov    DWORD PTR [rbp-0x8],0x0
    2245:	eb 2a                	jmp    2271 <str_append+0x6b>
    2247:	8b 45 f8             	mov    eax,DWORD PTR [rbp-0x8]
    224a:	48 63 d0             	movsxd rdx,eax
    224d:	48 8b 45 e0          	mov    rax,QWORD PTR [rbp-0x20]
    2251:	48 8d 0c 02          	lea    rcx,[rdx+rax*1]
    2255:	8b 45 fc             	mov    eax,DWORD PTR [rbp-0x4]
    2258:	8d 50 01             	lea    edx,[rax+0x1]
    225b:	89 55 fc             	mov    DWORD PTR [rbp-0x4],edx
    225e:	48 63 d0             	movsxd rdx,eax
    2261:	48 8b 45 e8          	mov    rax,QWORD PTR [rbp-0x18]
    2265:	48 01 c2             	add    rdx,rax
    2268:	0f b6 01             	movzx  eax,BYTE PTR [rcx]
    226b:	88 02                	mov    BYTE PTR [rdx],al
    226d:	83 45 f8 01          	add    DWORD PTR [rbp-0x8],0x1
    2271:	8b 45 f8             	mov    eax,DWORD PTR [rbp-0x8]
    2274:	48 63 d0             	movsxd rdx,eax
    2277:	48 8b 45 e0          	mov    rax,QWORD PTR [rbp-0x20]
    227b:	48 01 d0             	add    rax,rdx
    227e:	0f b6 00             	movzx  eax,BYTE PTR [rax]
    2281:	84 c0                	test   al,al
    2283:	75 c2                	jne    2247 <str_append+0x41>
    2285:	8b 45 fc             	mov    eax,DWORD PTR [rbp-0x4]
    2288:	48 63 d0             	movsxd rdx,eax
    228b:	48 8b 45 e8          	mov    rax,QWORD PTR [rbp-0x18]
    228f:	48 01 d0             	add    rax,rdx
    2292:	c6 00 00             	mov    BYTE PTR [rax],0x0
    2295:	b8 01 00 00 00       	mov    eax,0x1
    229a:	c9                   	leave
    229b:	c3                   	ret

000000000000229c <find_string>:
    229c:	f3 0f 1e fa          	endbr64
    22a0:	55                   	push   rbp
    22a1:	48 89 e5             	mov    rbp,rsp
    22a4:	48 83 ec 20          	sub    rsp,0x20
    22a8:	48 89 7d e8          	mov    QWORD PTR [rbp-0x18],rdi
    22ac:	48 89 75 e0          	mov    QWORD PTR [rbp-0x20],rsi
    22b0:	48 83 7d e8 00       	cmp    QWORD PTR [rbp-0x18],0x0
    22b5:	74 07                	je     22be <find_string+0x22>
    22b7:	48 83 7d e0 00       	cmp    QWORD PTR [rbp-0x20],0x0
    22bc:	75 0a                	jne    22c8 <find_string+0x2c>
    22be:	b8 ff ff ff ff       	mov    eax,0xffffffff
    22c3:	e9 bb 00 00 00       	jmp    2383 <find_string+0xe7>
    22c8:	48 8b 45 e8          	mov    rax,QWORD PTR [rbp-0x18]
    22cc:	48 89 c7             	mov    rdi,rax
    22cf:	e8 9a fe ff ff       	call   216e <str_len>
    22d4:	89 45 f4             	mov    DWORD PTR [rbp-0xc],eax
    22d7:	48 8b 45 e0          	mov    rax,QWORD PTR [rbp-0x20]
    22db:	48 89 c7             	mov    rdi,rax
    22de:	e8 8b fe ff ff       	call   216e <str_len>
    22e3:	89 45 f0             	mov    DWORD PTR [rbp-0x10],eax
    22e6:	c7 45 fc 00 00 00 00 	mov    DWORD PTR [rbp-0x4],0x0
    22ed:	e9 80 00 00 00       	jmp    2372 <find_string+0xd6>
    22f2:	c7 45 f8 00 00 00 00 	mov    DWORD PTR [rbp-0x8],0x0
    22f9:	eb 68                	jmp    2363 <find_string+0xc7>
    22fb:	8b 55 fc             	mov    edx,DWORD PTR [rbp-0x4]
    22fe:	8b 45 f8             	mov    eax,DWORD PTR [rbp-0x8]
    2301:	01 d0                	add    eax,edx
    2303:	48 63 d0             	movsxd rdx,eax
    2306:	48 8b 45 e8          	mov    rax,QWORD PTR [rbp-0x18]
    230a:	48 01 d0             	add    rax,rdx
    230d:	0f b6 10             	movzx  edx,BYTE PTR [rax]
    2310:	8b 45 f8             	mov    eax,DWORD PTR [rbp-0x8]
    2313:	48 63 c8             	movsxd rcx,eax
    2316:	48 8b 45 e0          	mov    rax,QWORD PTR [rbp-0x20]
    231a:	48 01 c8             	add    rax,rcx
    231d:	0f b6 00             	movzx  eax,BYTE PTR [rax]
    2320:	38 c2                	cmp    dl,al
    2322:	75 12                	jne    2336 <find_string+0x9a>
    2324:	8b 45 f0             	mov    eax,DWORD PTR [rbp-0x10]
    2327:	83 e8 01             	sub    eax,0x1
    232a:	39 45 f8             	cmp    DWORD PTR [rbp-0x8],eax
    232d:	75 07                	jne    2336 <find_string+0x9a>
    232f:	b8 01 00 00 00       	mov    eax,0x1
    2334:	eb 4d                	jmp    2383 <find_string+0xe7>
    2336:	8b 55 fc             	mov    edx,DWORD PTR [rbp-0x4]
    2339:	8b 45 f8             	mov    eax,DWORD PTR [rbp-0x8]
    233c:	01 d0                	add    eax,edx
    233e:	48 63 d0             	movsxd rdx,eax
    2341:	48 8b 45 e8          	mov    rax,QWORD PTR [rbp-0x18]
    2345:	48 01 d0             	add    rax,rdx
    2348:	0f b6 10             	movzx  edx,BYTE PTR [rax]
    234b:	8b 45 f8             	mov    eax,DWORD PTR [rbp-0x8]
    234e:	48 63 c8             	movsxd rcx,eax
    2351:	48 8b 45 e0          	mov    rax,QWORD PTR [rbp-0x20]
    2355:	48 01 c8             	add    rax,rcx
    2358:	0f b6 00             	movzx  eax,BYTE PTR [rax]
    235b:	38 c2                	cmp    dl,al
    235d:	75 0e                	jne    236d <find_string+0xd1>
    235f:	83 45 f8 01          	add    DWORD PTR [rbp-0x8],0x1
    2363:	8b 45 f8             	mov    eax,DWORD PTR [rbp-0x8]
    2366:	3b 45 f0             	cmp    eax,DWORD PTR [rbp-0x10]
    2369:	7c 90                	jl     22fb <find_string+0x5f>
    236b:	eb 01                	jmp    236e <find_string+0xd2>
    236d:	90                   	nop
    236e:	83 45 fc 01          	add    DWORD PTR [rbp-0x4],0x1
    2372:	8b 45 fc             	mov    eax,DWORD PTR [rbp-0x4]
    2375:	3b 45 f4             	cmp    eax,DWORD PTR [rbp-0xc]
    2378:	0f 8e 74 ff ff ff    	jle    22f2 <find_string+0x56>
    237e:	b8 ff ff ff ff       	mov    eax,0xffffffff
    2383:	c9                   	leave
    2384:	c3                   	ret

0000000000002385 <split_lines>:
    2385:	f3 0f 1e fa          	endbr64
    2389:	55                   	push   rbp
    238a:	48 89 e5             	mov    rbp,rsp
    238d:	41 54                	push   r12
    238f:	53                   	push   rbx
    2390:	48 83 ec 50          	sub    rsp,0x50
    2394:	48 89 7d a8          	mov    QWORD PTR [rbp-0x58],rdi
    2398:	48 89 75 a0          	mov    QWORD PTR [rbp-0x60],rsi
    239c:	48 89 e0             	mov    rax,rsp
    239f:	49 89 c4             	mov    r12,rax
    23a2:	48 83 7d a8 00       	cmp    QWORD PTR [rbp-0x58],0x0
    23a7:	75 0a                	jne    23b3 <split_lines+0x2e>
    23a9:	b8 00 00 00 00       	mov    eax,0x0
    23ae:	e9 58 02 00 00       	jmp    260b <split_lines+0x286>
    23b3:	48 8b 45 a8          	mov    rax,QWORD PTR [rbp-0x58]
    23b7:	48 89 c7             	mov    rdi,rax
    23ba:	e8 af fd ff ff       	call   216e <str_len>
    23bf:	89 45 dc             	mov    DWORD PTR [rbp-0x24],eax
    23c2:	48 8b 45 a8          	mov    rax,QWORD PTR [rbp-0x58]
    23c6:	be 0a 00 00 00       	mov    esi,0xa
    23cb:	48 89 c7             	mov    rdi,rax
    23ce:	e8 17 10 00 00       	call   33ea <count_char>
    23d3:	89 45 d8             	mov    DWORD PTR [rbp-0x28],eax
    23d6:	8b 45 d8             	mov    eax,DWORD PTR [rbp-0x28]
    23d9:	83 c0 01             	add    eax,0x1
    23dc:	89 c6                	mov    esi,eax
    23de:	bf 08 00 00 00       	mov    edi,0x8
    23e3:	e8 fe 0a 00 00       	call   2ee6 <allocate>
    23e8:	48 89 45 e8          	mov    QWORD PTR [rbp-0x18],rax
    23ec:	48 8b 45 a0          	mov    rax,QWORD PTR [rbp-0x60]
    23f0:	c7 00 00 00 00 00    	mov    DWORD PTR [rax],0x0
    23f6:	c7 45 e4 00 00 00 00 	mov    DWORD PTR [rbp-0x1c],0x0
    23fd:	8b 45 dc             	mov    eax,DWORD PTR [rbp-0x24]
    2400:	48 63 d0             	movsxd rdx,eax
    2403:	48 83 ea 01          	sub    rdx,0x1
    2407:	48 89 55 d0          	mov    QWORD PTR [rbp-0x30],rdx
    240b:	48 98                	cdqe
    240d:	ba 10 00 00 00       	mov    edx,0x10
    2412:	48 83 ea 01          	sub    rdx,0x1
    2416:	48 01 d0             	add    rax,rdx
    2419:	bb 10 00 00 00       	mov    ebx,0x10
    241e:	ba 00 00 00 00       	mov    edx,0x0
    2423:	48 f7 f3             	div    rbx
    2426:	48 6b c0 10          	imul   rax,rax,0x10
    242a:	48 89 c1             	mov    rcx,rax
    242d:	48 81 e1 00 f0 ff ff 	and    rcx,0xfffffffffffff000
    2434:	48 89 e2             	mov    rdx,rsp
    2437:	48 29 ca             	sub    rdx,rcx
    243a:	48 39 d4             	cmp    rsp,rdx
    243d:	74 12                	je     2451 <split_lines+0xcc>
    243f:	48 81 ec 00 10 00 00 	sub    rsp,0x1000
    2446:	48 83 8c 24 f8 0f 00 	or     QWORD PTR [rsp+0xff8],0x0
    244d:	00 00 
    244f:	eb e9                	jmp    243a <split_lines+0xb5>
    2451:	48 89 c2             	mov    rdx,rax
    2454:	81 e2 ff 0f 00 00    	and    edx,0xfff
    245a:	48 29 d4             	sub    rsp,rdx
    245d:	48 89 c2             	mov    rdx,rax
    2460:	81 e2 ff 0f 00 00    	and    edx,0xfff
    2466:	48 85 d2             	test   rdx,rdx
    2469:	74 10                	je     247b <split_lines+0xf6>
    246b:	25 ff 0f 00 00       	and    eax,0xfff
    2470:	48 83 e8 08          	sub    rax,0x8
    2474:	48 01 e0             	add    rax,rsp
    2477:	48 83 08 00          	or     QWORD PTR [rax],0x0
    247b:	48 89 e0             	mov    rax,rsp
    247e:	48 83 c0 00          	add    rax,0x0
    2482:	48 89 45 c8          	mov    QWORD PTR [rbp-0x38],rax
    2486:	c7 45 e0 00 00 00 00 	mov    DWORD PTR [rbp-0x20],0x0
    248d:	e9 44 01 00 00       	jmp    25d6 <split_lines+0x251>
    2492:	8b 45 e0             	mov    eax,DWORD PTR [rbp-0x20]
    2495:	48 63 d0             	movsxd rdx,eax
    2498:	48 8b 45 a8          	mov    rax,QWORD PTR [rbp-0x58]
    249c:	48 01 d0             	add    rax,rdx
    249f:	0f b6 00             	movzx  eax,BYTE PTR [rax]
    24a2:	84 c0                	test   al,al
    24a4:	0f 84 3a 01 00 00    	je     25e4 <split_lines+0x25f>
    24aa:	8b 45 e0             	mov    eax,DWORD PTR [rbp-0x20]
    24ad:	48 63 d0             	movsxd rdx,eax
    24b0:	48 8b 45 a8          	mov    rax,QWORD PTR [rbp-0x58]
    24b4:	48 01 d0             	add    rax,rdx
    24b7:	0f b6 00             	movzx  eax,BYTE PTR [rax]
    24ba:	3c 0a                	cmp    al,0xa
    24bc:	0f 85 e0 00 00 00    	jne    25a2 <split_lines+0x21d>
    24c2:	48 8b 45 c8          	mov    rax,QWORD PTR [rbp-0x38]
    24c6:	48 89 c7             	mov    rdi,rax
    24c9:	e8 a0 fc ff ff       	call   216e <str_len>
    24ce:	89 45 c4             	mov    DWORD PTR [rbp-0x3c],eax
    24d1:	83 7d c4 00          	cmp    DWORD PTR [rbp-0x3c],0x0
    24d5:	75 0f                	jne    24e6 <split_lines+0x161>
    24d7:	48 8b 45 c8          	mov    rax,QWORD PTR [rbp-0x38]
    24db:	c6 00 20             	mov    BYTE PTR [rax],0x20
    24de:	48 8b 45 c8          	mov    rax,QWORD PTR [rbp-0x38]
    24e2:	c6 40 01 00          	mov    BYTE PTR [rax+0x1],0x0
    24e6:	48 8b 55 c8          	mov    rdx,QWORD PTR [rbp-0x38]
    24ea:	8b 45 e4             	mov    eax,DWORD PTR [rbp-0x1c]
    24ed:	48 98                	cdqe
    24ef:	c6 04 02 00          	mov    BYTE PTR [rdx+rax*1],0x0
    24f3:	48 8b 45 a0          	mov    rax,QWORD PTR [rbp-0x60]
    24f7:	8b 00                	mov    eax,DWORD PTR [rax]
    24f9:	8d 48 01             	lea    ecx,[rax+0x1]
    24fc:	48 8b 55 a0          	mov    rdx,QWORD PTR [rbp-0x60]
    2500:	89 0a                	mov    DWORD PTR [rdx],ecx
    2502:	48 98                	cdqe
    2504:	48 8d 14 c5 00 00 00 	lea    rdx,[rax*8+0x0]
    250b:	00 
    250c:	48 8b 45 e8          	mov    rax,QWORD PTR [rbp-0x18]
    2510:	48 8d 1c 02          	lea    rbx,[rdx+rax*1]
    2514:	48 8b 45 c8          	mov    rax,QWORD PTR [rbp-0x38]
    2518:	48 89 c7             	mov    rdi,rax
    251b:	e8 ea fb ff ff       	call   210a <str_dup>
    2520:	48 89 03             	mov    QWORD PTR [rbx],rax
    2523:	48 8b 45 a0          	mov    rax,QWORD PTR [rbp-0x60]
    2527:	8b 00                	mov    eax,DWORD PTR [rax]
    2529:	83 c0 01             	add    eax,0x1
    252c:	48 98                	cdqe
    252e:	c1 e0 03             	shl    eax,0x3
    2531:	89 c2                	mov    edx,eax
    2533:	48 8b 45 e8          	mov    rax,QWORD PTR [rbp-0x18]
    2537:	89 d6                	mov    esi,edx
    2539:	48 89 c7             	mov    rdi,rax
    253c:	e8 5b f1 ff ff       	call   169c <to_heap>
    2541:	48 89 45 b8          	mov    QWORD PTR [rbp-0x48],rax
    2545:	48 8b 45 e8          	mov    rax,QWORD PTR [rbp-0x18]
    2549:	be 01 00 00 00       	mov    esi,0x1
    254e:	48 89 c7             	mov    rdi,rax
    2551:	e8 eb 0c 00 00       	call   3241 <pfree>
    2556:	48 8b 45 b8          	mov    rax,QWORD PTR [rbp-0x48]
    255a:	48 89 45 e8          	mov    QWORD PTR [rbp-0x18],rax
    255e:	48 83 7d e8 00       	cmp    QWORD PTR [rbp-0x18],0x0
    2563:	75 0f                	jne    2574 <split_lines+0x1ef>
    2565:	48 8d 05 f4 1a 00 00 	lea    rax,[rip+0x1af4]        # 4060 <_start+0x796>
    256c:	48 89 c7             	mov    rdi,rax
    256f:	e8 3b f0 ff ff       	call   15af <println>
    2574:	48 8b 45 a0          	mov    rax,QWORD PTR [rbp-0x60]
    2578:	8b 00                	mov    eax,DWORD PTR [rax]
    257a:	48 98                	cdqe
    257c:	48 8d 14 c5 00 00 00 	lea    rdx,[rax*8+0x0]
    2583:	00 
    2584:	48 8b 45 e8          	mov    rax,QWORD PTR [rbp-0x18]
    2588:	48 01 d0             	add    rax,rdx
    258b:	48 c7 00 00 00 00 00 	mov    QWORD PTR [rax],0x0
    2592:	48 8b 45 c8          	mov    rax,QWORD PTR [rbp-0x38]
    2596:	c6 00 00             	mov    BYTE PTR [rax],0x0
    2599:	c7 45 e4 00 00 00 00 	mov    DWORD PTR [rbp-0x1c],0x0
    25a0:	eb 30                	jmp    25d2 <split_lines+0x24d>
    25a2:	8b 45 e0             	mov    eax,DWORD PTR [rbp-0x20]
    25a5:	48 63 d0             	movsxd rdx,eax
    25a8:	48 8b 45 a8          	mov    rax,QWORD PTR [rbp-0x58]
    25ac:	48 8d 0c 02          	lea    rcx,[rdx+rax*1]
    25b0:	8b 45 e4             	mov    eax,DWORD PTR [rbp-0x1c]
    25b3:	8d 50 01             	lea    edx,[rax+0x1]
    25b6:	89 55 e4             	mov    DWORD PTR [rbp-0x1c],edx
    25b9:	0f b6 09             	movzx  ecx,BYTE PTR [rcx]
    25bc:	48 8b 55 c8          	mov    rdx,QWORD PTR [rbp-0x38]
    25c0:	48 98                	cdqe
    25c2:	88 0c 02             	mov    BYTE PTR [rdx+rax*1],cl
    25c5:	48 8b 55 c8          	mov    rdx,QWORD PTR [rbp-0x38]
    25c9:	8b 45 e4             	mov    eax,DWORD PTR [rbp-0x1c]
    25cc:	48 98                	cdqe
    25ce:	c6 04 02 00          	mov    BYTE PTR [rdx+rax*1],0x0
    25d2:	83 45 e0 01          	add    DWORD PTR [rbp-0x20],0x1
    25d6:	8b 45 e0             	mov    eax,DWORD PTR [rbp-0x20]
    25d9:	3b 45 dc             	cmp    eax,DWORD PTR [rbp-0x24]
    25dc:	0f 8c b0 fe ff ff    	jl     2492 <split_lines+0x10d>
    25e2:	eb 01                	jmp    25e5 <split_lines+0x260>
    25e4:	90                   	nop
    25e5:	48 8b 45 a0          	mov    rax,QWORD PTR [rbp-0x60]
    25e9:	8b 00                	mov    eax,DWORD PTR [rax]
    25eb:	85 c0                	test   eax,eax
    25ed:	7e 06                	jle    25f5 <split_lines+0x270>
    25ef:	48 8b 45 e8          	mov    rax,QWORD PTR [rbp-0x18]
    25f3:	eb 16                	jmp    260b <split_lines+0x286>
    25f5:	48 8b 45 e8          	mov    rax,QWORD PTR [rbp-0x18]
    25f9:	be 01 00 00 00       	mov    esi,0x1
    25fe:	48 89 c7             	mov    rdi,rax
    2601:	e8 3b 0c 00 00       	call   3241 <pfree>
    2606:	b8 00 00 00 00       	mov    eax,0x0
    260b:	4c 89 e4             	mov    rsp,r12
    260e:	48 8d 65 f0          	lea    rsp,[rbp-0x10]
    2612:	5b                   	pop    rbx
    2613:	41 5c                	pop    r12
    2615:	5d                   	pop    rbp
    2616:	c3                   	ret

0000000000002617 <split_string>:
    2617:	f3 0f 1e fa          	endbr64
    261b:	55                   	push   rbp
    261c:	48 89 e5             	mov    rbp,rsp
    261f:	41 54                	push   r12
    2621:	53                   	push   rbx
    2622:	48 83 ec 60          	sub    rsp,0x60
    2626:	48 89 7d a8          	mov    QWORD PTR [rbp-0x58],rdi
    262a:	89 f0                	mov    eax,esi
    262c:	48 89 55 98          	mov    QWORD PTR [rbp-0x68],rdx
    2630:	88 45 a4             	mov    BYTE PTR [rbp-0x5c],al
    2633:	48 89 e0             	mov    rax,rsp
    2636:	49 89 c4             	mov    r12,rax
    2639:	48 83 7d a8 00       	cmp    QWORD PTR [rbp-0x58],0x0
    263e:	75 0a                	jne    264a <split_string+0x33>
    2640:	b8 00 00 00 00       	mov    eax,0x0
    2645:	e9 9a 02 00 00       	jmp    28e4 <split_string+0x2cd>
    264a:	48 8b 45 a8          	mov    rax,QWORD PTR [rbp-0x58]
    264e:	48 89 c7             	mov    rdi,rax
    2651:	e8 18 fb ff ff       	call   216e <str_len>
    2656:	89 45 dc             	mov    DWORD PTR [rbp-0x24],eax
    2659:	48 8b 45 a8          	mov    rax,QWORD PTR [rbp-0x58]
    265d:	be 0a 00 00 00       	mov    esi,0xa
    2662:	48 89 c7             	mov    rdi,rax
    2665:	e8 80 0d 00 00       	call   33ea <count_char>
    266a:	89 45 d8             	mov    DWORD PTR [rbp-0x28],eax
    266d:	8b 45 d8             	mov    eax,DWORD PTR [rbp-0x28]
    2670:	83 c0 01             	add    eax,0x1
    2673:	89 c6                	mov    esi,eax
    2675:	bf 08 00 00 00       	mov    edi,0x8
    267a:	e8 67 08 00 00       	call   2ee6 <allocate>
    267f:	48 89 45 e8          	mov    QWORD PTR [rbp-0x18],rax
    2683:	48 8b 45 98          	mov    rax,QWORD PTR [rbp-0x68]
    2687:	c7 00 00 00 00 00    	mov    DWORD PTR [rax],0x0
    268d:	c7 45 e4 00 00 00 00 	mov    DWORD PTR [rbp-0x1c],0x0
    2694:	8b 45 dc             	mov    eax,DWORD PTR [rbp-0x24]
    2697:	48 63 d0             	movsxd rdx,eax
    269a:	48 83 ea 01          	sub    rdx,0x1
    269e:	48 89 55 d0          	mov    QWORD PTR [rbp-0x30],rdx
    26a2:	48 98                	cdqe
    26a4:	ba 10 00 00 00       	mov    edx,0x10
    26a9:	48 83 ea 01          	sub    rdx,0x1
    26ad:	48 01 d0             	add    rax,rdx
    26b0:	bb 10 00 00 00       	mov    ebx,0x10
    26b5:	ba 00 00 00 00       	mov    edx,0x0
    26ba:	48 f7 f3             	div    rbx
    26bd:	48 6b c0 10          	imul   rax,rax,0x10
    26c1:	48 89 c1             	mov    rcx,rax
    26c4:	48 81 e1 00 f0 ff ff 	and    rcx,0xfffffffffffff000
    26cb:	48 89 e2             	mov    rdx,rsp
    26ce:	48 29 ca             	sub    rdx,rcx
    26d1:	48 39 d4             	cmp    rsp,rdx
    26d4:	74 12                	je     26e8 <split_string+0xd1>
    26d6:	48 81 ec 00 10 00 00 	sub    rsp,0x1000
    26dd:	48 83 8c 24 f8 0f 00 	or     QWORD PTR [rsp+0xff8],0x0
    26e4:	00 00 
    26e6:	eb e9                	jmp    26d1 <split_string+0xba>
    26e8:	48 89 c2             	mov    rdx,rax
    26eb:	81 e2 ff 0f 00 00    	and    edx,0xfff
    26f1:	48 29 d4             	sub    rsp,rdx
    26f4:	48 89 c2             	mov    rdx,rax
    26f7:	81 e2 ff 0f 00 00    	and    edx,0xfff
    26fd:	48 85 d2             	test   rdx,rdx
    2700:	74 10                	je     2712 <split_string+0xfb>
    2702:	25 ff 0f 00 00       	and    eax,0xfff
    2707:	48 83 e8 08          	sub    rax,0x8
    270b:	48 01 e0             	add    rax,rsp
    270e:	48 83 08 00          	or     QWORD PTR [rax],0x0
    2712:	48 89 e0             	mov    rax,rsp
    2715:	48 83 c0 00          	add    rax,0x0
    2719:	48 89 45 c8          	mov    QWORD PTR [rbp-0x38],rax
    271d:	c7 45 e0 00 00 00 00 	mov    DWORD PTR [rbp-0x20],0x0
    2724:	e9 38 01 00 00       	jmp    2861 <split_string+0x24a>
    2729:	8b 45 e0             	mov    eax,DWORD PTR [rbp-0x20]
    272c:	48 63 d0             	movsxd rdx,eax
    272f:	48 8b 45 a8          	mov    rax,QWORD PTR [rbp-0x58]
    2733:	48 01 d0             	add    rax,rdx
    2736:	0f b6 00             	movzx  eax,BYTE PTR [rax]
    2739:	84 c0                	test   al,al
    273b:	0f 84 2e 01 00 00    	je     286f <split_string+0x258>
    2741:	8b 45 e0             	mov    eax,DWORD PTR [rbp-0x20]
    2744:	48 63 d0             	movsxd rdx,eax
    2747:	48 8b 45 a8          	mov    rax,QWORD PTR [rbp-0x58]
    274b:	48 01 d0             	add    rax,rdx
    274e:	0f b6 00             	movzx  eax,BYTE PTR [rax]
    2751:	38 45 a4             	cmp    BYTE PTR [rbp-0x5c],al
    2754:	0f 85 d3 00 00 00    	jne    282d <split_string+0x216>
    275a:	48 8b 45 c8          	mov    rax,QWORD PTR [rbp-0x38]
    275e:	48 89 c7             	mov    rdi,rax
    2761:	e8 08 fa ff ff       	call   216e <str_len>
    2766:	89 45 c4             	mov    DWORD PTR [rbp-0x3c],eax
    2769:	83 7d c4 00          	cmp    DWORD PTR [rbp-0x3c],0x0
    276d:	75 0f                	jne    277e <split_string+0x167>
    276f:	48 8b 45 c8          	mov    rax,QWORD PTR [rbp-0x38]
    2773:	c6 00 20             	mov    BYTE PTR [rax],0x20
    2776:	48 8b 45 c8          	mov    rax,QWORD PTR [rbp-0x38]
    277a:	c6 40 01 00          	mov    BYTE PTR [rax+0x1],0x0
    277e:	48 8b 45 98          	mov    rax,QWORD PTR [rbp-0x68]
    2782:	8b 00                	mov    eax,DWORD PTR [rax]
    2784:	8d 48 01             	lea    ecx,[rax+0x1]
    2787:	48 8b 55 98          	mov    rdx,QWORD PTR [rbp-0x68]
    278b:	89 0a                	mov    DWORD PTR [rdx],ecx
    278d:	48 98                	cdqe
    278f:	48 8d 14 c5 00 00 00 	lea    rdx,[rax*8+0x0]
    2796:	00 
    2797:	48 8b 45 e8          	mov    rax,QWORD PTR [rbp-0x18]
    279b:	48 8d 1c 02          	lea    rbx,[rdx+rax*1]
    279f:	48 8b 45 c8          	mov    rax,QWORD PTR [rbp-0x38]
    27a3:	48 89 c7             	mov    rdi,rax
    27a6:	e8 5f f9 ff ff       	call   210a <str_dup>
    27ab:	48 89 03             	mov    QWORD PTR [rbx],rax
    27ae:	48 8b 45 98          	mov    rax,QWORD PTR [rbp-0x68]
    27b2:	8b 00                	mov    eax,DWORD PTR [rax]
    27b4:	83 c0 01             	add    eax,0x1
    27b7:	48 98                	cdqe
    27b9:	c1 e0 03             	shl    eax,0x3
    27bc:	89 c2                	mov    edx,eax
    27be:	48 8b 45 e8          	mov    rax,QWORD PTR [rbp-0x18]
    27c2:	89 d6                	mov    esi,edx
    27c4:	48 89 c7             	mov    rdi,rax
    27c7:	e8 d0 ee ff ff       	call   169c <to_heap>
    27cc:	48 89 45 b8          	mov    QWORD PTR [rbp-0x48],rax
    27d0:	48 8b 45 e8          	mov    rax,QWORD PTR [rbp-0x18]
    27d4:	be 01 00 00 00       	mov    esi,0x1
    27d9:	48 89 c7             	mov    rdi,rax
    27dc:	e8 60 0a 00 00       	call   3241 <pfree>
    27e1:	48 8b 45 b8          	mov    rax,QWORD PTR [rbp-0x48]
    27e5:	48 89 45 e8          	mov    QWORD PTR [rbp-0x18],rax
    27e9:	48 83 7d e8 00       	cmp    QWORD PTR [rbp-0x18],0x0
    27ee:	75 0f                	jne    27ff <split_string+0x1e8>
    27f0:	48 8d 05 69 18 00 00 	lea    rax,[rip+0x1869]        # 4060 <_start+0x796>
    27f7:	48 89 c7             	mov    rdi,rax
    27fa:	e8 b0 ed ff ff       	call   15af <println>
    27ff:	48 8b 45 98          	mov    rax,QWORD PTR [rbp-0x68]
    2803:	8b 00                	mov    eax,DWORD PTR [rax]
    2805:	48 98                	cdqe
    2807:	48 8d 14 c5 00 00 00 	lea    rdx,[rax*8+0x0]
    280e:	00 
    280f:	48 8b 45 e8          	mov    rax,QWORD PTR [rbp-0x18]
    2813:	48 01 d0             	add    rax,rdx
    2816:	48 c7 00 00 00 00 00 	mov    QWORD PTR [rax],0x0
    281d:	48 8b 45 c8          	mov    rax,QWORD PTR [rbp-0x38]
    2821:	c6 00 00             	mov    BYTE PTR [rax],0x0
    2824:	c7 45 e4 00 00 00 00 	mov    DWORD PTR [rbp-0x1c],0x0
    282b:	eb 30                	jmp    285d <split_string+0x246>
    282d:	8b 45 e0             	mov    eax,DWORD PTR [rbp-0x20]
    2830:	48 63 d0             	movsxd rdx,eax
    2833:	48 8b 45 a8          	mov    rax,QWORD PTR [rbp-0x58]
    2837:	48 8d 0c 02          	lea    rcx,[rdx+rax*1]
    283b:	8b 45 e4             	mov    eax,DWORD PTR [rbp-0x1c]
    283e:	8d 50 01             	lea    edx,[rax+0x1]
    2841:	89 55 e4             	mov    DWORD PTR [rbp-0x1c],edx
    2844:	0f b6 09             	movzx  ecx,BYTE PTR [rcx]
    2847:	48 8b 55 c8          	mov    rdx,QWORD PTR [rbp-0x38]
    284b:	48 98                	cdqe
    284d:	88 0c 02             	mov    BYTE PTR [rdx+rax*1],cl
    2850:	48 8b 55 c8          	mov    rdx,QWORD PTR [rbp-0x38]
    2854:	8b 45 e4             	mov    eax,DWORD PTR [rbp-0x1c]
    2857:	48 98                	cdqe
    2859:	c6 04 02 00          	mov    BYTE PTR [rdx+rax*1],0x0
    285d:	83 45 e0 01          	add    DWORD PTR [rbp-0x20],0x1
    2861:	8b 45 e0             	mov    eax,DWORD PTR [rbp-0x20]
    2864:	3b 45 dc             	cmp    eax,DWORD PTR [rbp-0x24]
    2867:	0f 8c bc fe ff ff    	jl     2729 <split_string+0x112>
    286d:	eb 01                	jmp    2870 <split_string+0x259>
    286f:	90                   	nop
    2870:	48 8b 45 98          	mov    rax,QWORD PTR [rbp-0x68]
    2874:	8b 00                	mov    eax,DWORD PTR [rax]
    2876:	8d 48 01             	lea    ecx,[rax+0x1]
    2879:	48 8b 55 98          	mov    rdx,QWORD PTR [rbp-0x68]
    287d:	89 0a                	mov    DWORD PTR [rdx],ecx
    287f:	48 98                	cdqe
    2881:	48 8d 14 c5 00 00 00 	lea    rdx,[rax*8+0x0]
    2888:	00 
    2889:	48 8b 45 e8          	mov    rax,QWORD PTR [rbp-0x18]
    288d:	48 8d 1c 02          	lea    rbx,[rdx+rax*1]
    2891:	48 8b 45 c8          	mov    rax,QWORD PTR [rbp-0x38]
    2895:	48 89 c7             	mov    rdi,rax
    2898:	e8 6d f8 ff ff       	call   210a <str_dup>
    289d:	48 89 03             	mov    QWORD PTR [rbx],rax
    28a0:	48 8b 45 98          	mov    rax,QWORD PTR [rbp-0x68]
    28a4:	8b 00                	mov    eax,DWORD PTR [rax]
    28a6:	48 98                	cdqe
    28a8:	48 8d 14 c5 00 00 00 	lea    rdx,[rax*8+0x0]
    28af:	00 
    28b0:	48 8b 45 e8          	mov    rax,QWORD PTR [rbp-0x18]
    28b4:	48 01 d0             	add    rax,rdx
    28b7:	48 c7 00 00 00 00 00 	mov    QWORD PTR [rax],0x0
    28be:	48 8b 45 98          	mov    rax,QWORD PTR [rbp-0x68]
    28c2:	8b 00                	mov    eax,DWORD PTR [rax]
    28c4:	85 c0                	test   eax,eax
    28c6:	7e 06                	jle    28ce <split_string+0x2b7>
    28c8:	48 8b 45 e8          	mov    rax,QWORD PTR [rbp-0x18]
    28cc:	eb 16                	jmp    28e4 <split_string+0x2cd>
    28ce:	48 8b 45 e8          	mov    rax,QWORD PTR [rbp-0x18]
    28d2:	be 01 00 00 00       	mov    esi,0x1
    28d7:	48 89 c7             	mov    rdi,rax
    28da:	e8 62 09 00 00       	call   3241 <pfree>
    28df:	b8 00 00 00 00       	mov    eax,0x0
    28e4:	4c 89 e4             	mov    rsp,r12
    28e7:	48 8d 65 f0          	lea    rsp,[rbp-0x10]
    28eb:	5b                   	pop    rbx
    28ec:	41 5c                	pop    r12
    28ee:	5d                   	pop    rbp
    28ef:	c3                   	ret

00000000000028f0 <get_sub_str>:
    28f0:	f3 0f 1e fa          	endbr64
    28f4:	55                   	push   rbp
    28f5:	48 89 e5             	mov    rbp,rsp
    28f8:	48 83 ec 30          	sub    rsp,0x30
    28fc:	48 89 7d d8          	mov    QWORD PTR [rbp-0x28],rdi
    2900:	89 75 d4             	mov    DWORD PTR [rbp-0x2c],esi
    2903:	89 55 d0             	mov    DWORD PTR [rbp-0x30],edx
    2906:	8b 45 d0             	mov    eax,DWORD PTR [rbp-0x30]
    2909:	2b 45 d4             	sub    eax,DWORD PTR [rbp-0x2c]
    290c:	89 45 f4             	mov    DWORD PTR [rbp-0xc],eax
    290f:	8b 45 d0             	mov    eax,DWORD PTR [rbp-0x30]
    2912:	89 c6                	mov    esi,eax
    2914:	bf 00 00 00 00       	mov    edi,0x0
    2919:	e8 c8 05 00 00       	call   2ee6 <allocate>
    291e:	48 89 45 e8          	mov    QWORD PTR [rbp-0x18],rax
    2922:	c7 45 fc 00 00 00 00 	mov    DWORD PTR [rbp-0x4],0x0
    2929:	c7 45 f8 00 00 00 00 	mov    DWORD PTR [rbp-0x8],0x0
    2930:	eb 3a                	jmp    296c <get_sub_str+0x7c>
    2932:	8b 45 f8             	mov    eax,DWORD PTR [rbp-0x8]
    2935:	3b 45 d4             	cmp    eax,DWORD PTR [rbp-0x2c]
    2938:	7d 08                	jge    2942 <get_sub_str+0x52>
    293a:	8b 45 f8             	mov    eax,DWORD PTR [rbp-0x8]
    293d:	3b 45 d0             	cmp    eax,DWORD PTR [rbp-0x30]
    2940:	7f 26                	jg     2968 <get_sub_str+0x78>
    2942:	8b 45 f8             	mov    eax,DWORD PTR [rbp-0x8]
    2945:	48 63 d0             	movsxd rdx,eax
    2948:	48 8b 45 d8          	mov    rax,QWORD PTR [rbp-0x28]
    294c:	48 8d 0c 02          	lea    rcx,[rdx+rax*1]
    2950:	8b 45 fc             	mov    eax,DWORD PTR [rbp-0x4]
    2953:	8d 50 01             	lea    edx,[rax+0x1]
    2956:	89 55 fc             	mov    DWORD PTR [rbp-0x4],edx
    2959:	48 63 d0             	movsxd rdx,eax
    295c:	48 8b 45 e8          	mov    rax,QWORD PTR [rbp-0x18]
    2960:	48 01 c2             	add    rdx,rax
    2963:	0f b6 01             	movzx  eax,BYTE PTR [rcx]
    2966:	88 02                	mov    BYTE PTR [rdx],al
    2968:	83 45 f8 01          	add    DWORD PTR [rbp-0x8],0x1
    296c:	8b 45 f8             	mov    eax,DWORD PTR [rbp-0x8]
    296f:	48 63 d0             	movsxd rdx,eax
    2972:	48 8b 45 d8          	mov    rax,QWORD PTR [rbp-0x28]
    2976:	48 01 d0             	add    rax,rdx
    2979:	0f b6 00             	movzx  eax,BYTE PTR [rax]
    297c:	84 c0                	test   al,al
    297e:	75 b2                	jne    2932 <get_sub_str+0x42>
    2980:	8b 45 fc             	mov    eax,DWORD PTR [rbp-0x4]
    2983:	48 63 d0             	movsxd rdx,eax
    2986:	48 8b 45 e8          	mov    rax,QWORD PTR [rbp-0x18]
    298a:	48 01 d0             	add    rax,rdx
    298d:	c6 00 00             	mov    BYTE PTR [rax],0x0
    2990:	48 8b 45 e8          	mov    rax,QWORD PTR [rbp-0x18]
    2994:	c9                   	leave
    2995:	c3                   	ret

0000000000002996 <is_empty>:
    2996:	f3 0f 1e fa          	endbr64
    299a:	55                   	push   rbp
    299b:	48 89 e5             	mov    rbp,rsp
    299e:	48 89 7d e8          	mov    QWORD PTR [rbp-0x18],rdi
    29a2:	48 83 7d e8 00       	cmp    QWORD PTR [rbp-0x18],0x0
    29a7:	75 07                	jne    29b0 <is_empty+0x1a>
    29a9:	b8 00 00 00 00       	mov    eax,0x0
    29ae:	eb 41                	jmp    29f1 <is_empty+0x5b>
    29b0:	c7 45 fc 00 00 00 00 	mov    DWORD PTR [rbp-0x4],0x0
    29b7:	eb 1f                	jmp    29d8 <is_empty+0x42>
    29b9:	8b 45 fc             	mov    eax,DWORD PTR [rbp-0x4]
    29bc:	48 63 d0             	movsxd rdx,eax
    29bf:	48 8b 45 e8          	mov    rax,QWORD PTR [rbp-0x18]
    29c3:	48 01 d0             	add    rax,rdx
    29c6:	0f b6 00             	movzx  eax,BYTE PTR [rax]
    29c9:	3c 20                	cmp    al,0x20
    29cb:	74 07                	je     29d4 <is_empty+0x3e>
    29cd:	b8 00 00 00 00       	mov    eax,0x0
    29d2:	eb 1d                	jmp    29f1 <is_empty+0x5b>
    29d4:	83 45 fc 01          	add    DWORD PTR [rbp-0x4],0x1
    29d8:	8b 45 fc             	mov    eax,DWORD PTR [rbp-0x4]
    29db:	48 63 d0             	movsxd rdx,eax
    29de:	48 8b 45 e8          	mov    rax,QWORD PTR [rbp-0x18]
    29e2:	48 01 d0             	add    rax,rdx
    29e5:	0f b6 00             	movzx  eax,BYTE PTR [rax]
    29e8:	84 c0                	test   al,al
    29ea:	75 cd                	jne    29b9 <is_empty+0x23>
    29ec:	b8 01 00 00 00       	mov    eax,0x1
    29f1:	5d                   	pop    rbp
    29f2:	c3                   	ret

00000000000029f3 <byte_to_hex>:
    29f3:	f3 0f 1e fa          	endbr64
    29f7:	55                   	push   rbp
    29f8:	48 89 e5             	mov    rbp,rsp
    29fb:	89 f8                	mov    eax,edi
    29fd:	48 89 75 d0          	mov    QWORD PTR [rbp-0x30],rsi
    2a01:	88 45 dc             	mov    BYTE PTR [rbp-0x24],al
    2a04:	48 b8 30 31 32 33 34 	movabs rax,0x3736353433323130
    2a0b:	35 36 37 
    2a0e:	48 ba 38 39 41 42 43 	movabs rdx,0x4645444342413938
    2a15:	44 45 46 
    2a18:	48 89 45 e0          	mov    QWORD PTR [rbp-0x20],rax
    2a1c:	48 89 55 e8          	mov    QWORD PTR [rbp-0x18],rdx
    2a20:	c6 45 f0 00          	mov    BYTE PTR [rbp-0x10],0x0
    2a24:	0f b6 45 dc          	movzx  eax,BYTE PTR [rbp-0x24]
    2a28:	c0 e8 04             	shr    al,0x4
    2a2b:	0f b6 c0             	movzx  eax,al
    2a2e:	83 e0 0f             	and    eax,0xf
    2a31:	48 98                	cdqe
    2a33:	0f b6 54 05 e0       	movzx  edx,BYTE PTR [rbp+rax*1-0x20]
    2a38:	48 8b 45 d0          	mov    rax,QWORD PTR [rbp-0x30]
    2a3c:	88 10                	mov    BYTE PTR [rax],dl
    2a3e:	0f b6 45 dc          	movzx  eax,BYTE PTR [rbp-0x24]
    2a42:	83 e0 0f             	and    eax,0xf
    2a45:	89 c1                	mov    ecx,eax
    2a47:	48 8b 45 d0          	mov    rax,QWORD PTR [rbp-0x30]
    2a4b:	48 8d 50 01          	lea    rdx,[rax+0x1]
    2a4f:	48 63 c1             	movsxd rax,ecx
    2a52:	0f b6 44 05 e0       	movzx  eax,BYTE PTR [rbp+rax*1-0x20]
    2a57:	88 02                	mov    BYTE PTR [rdx],al
    2a59:	48 8b 45 d0          	mov    rax,QWORD PTR [rbp-0x30]
    2a5d:	48 83 c0 02          	add    rax,0x2
    2a61:	c6 00 00             	mov    BYTE PTR [rax],0x0
    2a64:	90                   	nop
    2a65:	5d                   	pop    rbp
    2a66:	c3                   	ret

0000000000002a67 <str_startswith>:
    2a67:	f3 0f 1e fa          	endbr64
    2a6b:	55                   	push   rbp
    2a6c:	48 89 e5             	mov    rbp,rsp
    2a6f:	48 83 ec 20          	sub    rsp,0x20
    2a73:	48 89 7d e8          	mov    QWORD PTR [rbp-0x18],rdi
    2a77:	48 89 75 e0          	mov    QWORD PTR [rbp-0x20],rsi
    2a7b:	48 83 7d e8 00       	cmp    QWORD PTR [rbp-0x18],0x0
    2a80:	74 07                	je     2a89 <str_startswith+0x22>
    2a82:	48 83 7d e0 00       	cmp    QWORD PTR [rbp-0x20],0x0
    2a87:	75 07                	jne    2a90 <str_startswith+0x29>
    2a89:	b8 00 00 00 00       	mov    eax,0x0
    2a8e:	eb 7b                	jmp    2b0b <str_startswith+0xa4>
    2a90:	48 8b 45 e8          	mov    rax,QWORD PTR [rbp-0x18]
    2a94:	48 89 c7             	mov    rdi,rax
    2a97:	e8 d2 f6 ff ff       	call   216e <str_len>
    2a9c:	89 45 f8             	mov    DWORD PTR [rbp-0x8],eax
    2a9f:	48 8b 45 e0          	mov    rax,QWORD PTR [rbp-0x20]
    2aa3:	48 89 c7             	mov    rdi,rax
    2aa6:	e8 c3 f6 ff ff       	call   216e <str_len>
    2aab:	89 45 f4             	mov    DWORD PTR [rbp-0xc],eax
    2aae:	8b 45 f4             	mov    eax,DWORD PTR [rbp-0xc]
    2ab1:	3b 45 f8             	cmp    eax,DWORD PTR [rbp-0x8]
    2ab4:	7e 07                	jle    2abd <str_startswith+0x56>
    2ab6:	b8 00 00 00 00       	mov    eax,0x0
    2abb:	eb 4e                	jmp    2b0b <str_startswith+0xa4>
    2abd:	8b 45 f8             	mov    eax,DWORD PTR [rbp-0x8]
    2ac0:	2b 45 f4             	sub    eax,DWORD PTR [rbp-0xc]
    2ac3:	89 45 f0             	mov    DWORD PTR [rbp-0x10],eax
    2ac6:	c7 45 fc 00 00 00 00 	mov    DWORD PTR [rbp-0x4],0x0
    2acd:	eb 2f                	jmp    2afe <str_startswith+0x97>
    2acf:	8b 45 fc             	mov    eax,DWORD PTR [rbp-0x4]
    2ad2:	48 63 d0             	movsxd rdx,eax
    2ad5:	48 8b 45 e8          	mov    rax,QWORD PTR [rbp-0x18]
    2ad9:	48 01 d0             	add    rax,rdx
    2adc:	0f b6 10             	movzx  edx,BYTE PTR [rax]
    2adf:	8b 45 fc             	mov    eax,DWORD PTR [rbp-0x4]
    2ae2:	48 63 c8             	movsxd rcx,eax
    2ae5:	48 8b 45 e0          	mov    rax,QWORD PTR [rbp-0x20]
    2ae9:	48 01 c8             	add    rax,rcx
    2aec:	0f b6 00             	movzx  eax,BYTE PTR [rax]
    2aef:	38 c2                	cmp    dl,al
    2af1:	74 07                	je     2afa <str_startswith+0x93>
    2af3:	b8 00 00 00 00       	mov    eax,0x0
    2af8:	eb 11                	jmp    2b0b <str_startswith+0xa4>
    2afa:	83 45 fc 01          	add    DWORD PTR [rbp-0x4],0x1
    2afe:	8b 45 fc             	mov    eax,DWORD PTR [rbp-0x4]
    2b01:	3b 45 f4             	cmp    eax,DWORD PTR [rbp-0xc]
    2b04:	7c c9                	jl     2acf <str_startswith+0x68>
    2b06:	b8 01 00 00 00       	mov    eax,0x1
    2b0b:	c9                   	leave
    2b0c:	c3                   	ret

0000000000002b0d <str_endswith>:
    2b0d:	f3 0f 1e fa          	endbr64
    2b11:	55                   	push   rbp
    2b12:	48 89 e5             	mov    rbp,rsp
    2b15:	48 83 ec 30          	sub    rsp,0x30
    2b19:	48 89 7d d8          	mov    QWORD PTR [rbp-0x28],rdi
    2b1d:	48 89 75 d0          	mov    QWORD PTR [rbp-0x30],rsi
    2b21:	48 83 7d d8 00       	cmp    QWORD PTR [rbp-0x28],0x0
    2b26:	74 07                	je     2b2f <str_endswith+0x22>
    2b28:	48 83 7d d0 00       	cmp    QWORD PTR [rbp-0x30],0x0
    2b2d:	75 0a                	jne    2b39 <str_endswith+0x2c>
    2b2f:	b8 00 00 00 00       	mov    eax,0x0
    2b34:	e9 91 00 00 00       	jmp    2bca <str_endswith+0xbd>
    2b39:	48 8b 45 d8          	mov    rax,QWORD PTR [rbp-0x28]
    2b3d:	48 89 c7             	mov    rdi,rax
    2b40:	e8 29 f6 ff ff       	call   216e <str_len>
    2b45:	89 45 f4             	mov    DWORD PTR [rbp-0xc],eax
    2b48:	48 8b 45 d0          	mov    rax,QWORD PTR [rbp-0x30]
    2b4c:	48 89 c7             	mov    rdi,rax
    2b4f:	e8 1a f6 ff ff       	call   216e <str_len>
    2b54:	89 45 f0             	mov    DWORD PTR [rbp-0x10],eax
    2b57:	8b 45 f0             	mov    eax,DWORD PTR [rbp-0x10]
    2b5a:	3b 45 f4             	cmp    eax,DWORD PTR [rbp-0xc]
    2b5d:	7e 07                	jle    2b66 <str_endswith+0x59>
    2b5f:	b8 00 00 00 00       	mov    eax,0x0
    2b64:	eb 64                	jmp    2bca <str_endswith+0xbd>
    2b66:	8b 45 f4             	mov    eax,DWORD PTR [rbp-0xc]
    2b69:	2b 45 f0             	sub    eax,DWORD PTR [rbp-0x10]
    2b6c:	89 45 ec             	mov    DWORD PTR [rbp-0x14],eax
    2b6f:	8b 45 ec             	mov    eax,DWORD PTR [rbp-0x14]
    2b72:	89 45 fc             	mov    DWORD PTR [rbp-0x4],eax
    2b75:	c7 45 f8 00 00 00 00 	mov    DWORD PTR [rbp-0x8],0x0
    2b7c:	eb 33                	jmp    2bb1 <str_endswith+0xa4>
    2b7e:	8b 45 fc             	mov    eax,DWORD PTR [rbp-0x4]
    2b81:	48 63 d0             	movsxd rdx,eax
    2b84:	48 8b 45 d8          	mov    rax,QWORD PTR [rbp-0x28]
    2b88:	48 01 d0             	add    rax,rdx
    2b8b:	0f b6 10             	movzx  edx,BYTE PTR [rax]
    2b8e:	8b 45 f8             	mov    eax,DWORD PTR [rbp-0x8]
    2b91:	48 63 c8             	movsxd rcx,eax
    2b94:	48 8b 45 d0          	mov    rax,QWORD PTR [rbp-0x30]
    2b98:	48 01 c8             	add    rax,rcx
    2b9b:	0f b6 00             	movzx  eax,BYTE PTR [rax]
    2b9e:	38 c2                	cmp    dl,al
    2ba0:	74 07                	je     2ba9 <str_endswith+0x9c>
    2ba2:	b8 00 00 00 00       	mov    eax,0x0
    2ba7:	eb 21                	jmp    2bca <str_endswith+0xbd>
    2ba9:	83 45 fc 01          	add    DWORD PTR [rbp-0x4],0x1
    2bad:	83 45 f8 01          	add    DWORD PTR [rbp-0x8],0x1
    2bb1:	8b 45 fc             	mov    eax,DWORD PTR [rbp-0x4]
    2bb4:	48 63 d0             	movsxd rdx,eax
    2bb7:	48 8b 45 d8          	mov    rax,QWORD PTR [rbp-0x28]
    2bbb:	48 01 d0             	add    rax,rdx
    2bbe:	0f b6 00             	movzx  eax,BYTE PTR [rax]
    2bc1:	84 c0                	test   al,al
    2bc3:	75 b9                	jne    2b7e <str_endswith+0x71>
    2bc5:	b8 01 00 00 00       	mov    eax,0x1
    2bca:	c9                   	leave
    2bcb:	c3                   	ret

0000000000002bcc <__syscall__>:
    2bcc:	f3 0f 1e fa          	endbr64
    2bd0:	55                   	push   rbp
    2bd1:	48 89 e5             	mov    rbp,rsp
    2bd4:	48 89 7d f8          	mov    QWORD PTR [rbp-0x8],rdi
    2bd8:	48 89 75 f0          	mov    QWORD PTR [rbp-0x10],rsi
    2bdc:	48 89 55 e8          	mov    QWORD PTR [rbp-0x18],rdx
    2be0:	48 89 4d e0          	mov    QWORD PTR [rbp-0x20],rcx
    2be4:	4c 89 45 d8          	mov    QWORD PTR [rbp-0x28],r8
    2be8:	4c 89 4d d0          	mov    QWORD PTR [rbp-0x30],r9
    2bec:	48 8b 45 10          	mov    rax,QWORD PTR [rbp+0x10]
    2bf0:	0f 05                	syscall
    2bf2:	90                   	nop
    2bf3:	5d                   	pop    rbp
    2bf4:	c3                   	ret

0000000000002bf5 <__syscall>:
    2bf5:	f3 0f 1e fa          	endbr64
    2bf9:	55                   	push   rbp
    2bfa:	48 89 e5             	mov    rbp,rsp
    2bfd:	48 89 7d f8          	mov    QWORD PTR [rbp-0x8],rdi
    2c01:	48 89 75 f0          	mov    QWORD PTR [rbp-0x10],rsi
    2c05:	48 89 55 e8          	mov    QWORD PTR [rbp-0x18],rdx
    2c09:	48 89 4d e0          	mov    QWORD PTR [rbp-0x20],rcx
    2c0d:	4c 89 45 d8          	mov    QWORD PTR [rbp-0x28],r8
    2c11:	4c 89 4d d0          	mov    QWORD PTR [rbp-0x30],r9
    2c15:	48 8b 45 f8          	mov    rax,QWORD PTR [rbp-0x8]
    2c19:	48 83 7d f0 ff       	cmp    QWORD PTR [rbp-0x10],0xffffffffffffffff
    2c1e:	75 04                	jne    2c24 <__syscall+0x2f>
    2c20:	0f 05                	syscall
    2c22:	eb 51                	jmp    2c75 <__syscall+0x80>
    2c24:	48 8b 7d f0          	mov    rdi,QWORD PTR [rbp-0x10]
    2c28:	48 83 7d e8 ff       	cmp    QWORD PTR [rbp-0x18],0xffffffffffffffff
    2c2d:	75 04                	jne    2c33 <__syscall+0x3e>
    2c2f:	0f 05                	syscall
    2c31:	eb 42                	jmp    2c75 <__syscall+0x80>
    2c33:	48 8b 75 e8          	mov    rsi,QWORD PTR [rbp-0x18]
    2c37:	48 83 7d e0 ff       	cmp    QWORD PTR [rbp-0x20],0xffffffffffffffff
    2c3c:	75 04                	jne    2c42 <__syscall+0x4d>
    2c3e:	0f 05                	syscall
    2c40:	eb 33                	jmp    2c75 <__syscall+0x80>
    2c42:	48 8b 55 e0          	mov    rdx,QWORD PTR [rbp-0x20]
    2c46:	48 83 7d d8 ff       	cmp    QWORD PTR [rbp-0x28],0xffffffffffffffff
    2c4b:	75 04                	jne    2c51 <__syscall+0x5c>
    2c4d:	0f 05                	syscall
    2c4f:	eb 24                	jmp    2c75 <__syscall+0x80>
    2c51:	4c 8b 55 d8          	mov    r10,QWORD PTR [rbp-0x28]
    2c55:	48 83 7d d0 ff       	cmp    QWORD PTR [rbp-0x30],0xffffffffffffffff
    2c5a:	75 04                	jne    2c60 <__syscall+0x6b>
    2c5c:	0f 05                	syscall
    2c5e:	eb 15                	jmp    2c75 <__syscall+0x80>
    2c60:	4c 8b 45 d0          	mov    r8,QWORD PTR [rbp-0x30]
    2c64:	48 83 7d 10 ff       	cmp    QWORD PTR [rbp+0x10],0xffffffffffffffff
    2c69:	75 04                	jne    2c6f <__syscall+0x7a>
    2c6b:	0f 05                	syscall
    2c6d:	eb 06                	jmp    2c75 <__syscall+0x80>
    2c6f:	4c 8b 4d 10          	mov    r9,QWORD PTR [rbp+0x10]
    2c73:	0f 05                	syscall
    2c75:	5d                   	pop    rbp
    2c76:	c3                   	ret

0000000000002c77 <___syscall__>:
    2c77:	f3 0f 1e fa          	endbr64
    2c7b:	55                   	push   rbp
    2c7c:	48 89 e5             	mov    rbp,rsp
    2c7f:	48 89 7d f8          	mov    QWORD PTR [rbp-0x8],rdi
    2c83:	48 89 75 f0          	mov    QWORD PTR [rbp-0x10],rsi
    2c87:	48 89 55 e8          	mov    QWORD PTR [rbp-0x18],rdx
    2c8b:	48 89 4d e0          	mov    QWORD PTR [rbp-0x20],rcx
    2c8f:	4c 89 45 d8          	mov    QWORD PTR [rbp-0x28],r8
    2c93:	4c 89 4d d0          	mov    QWORD PTR [rbp-0x30],r9
    2c97:	48 8b 45 10          	mov    rax,QWORD PTR [rbp+0x10]
    2c9b:	48 8b 7d f8          	mov    rdi,QWORD PTR [rbp-0x8]
    2c9f:	48 8b 75 f0          	mov    rsi,QWORD PTR [rbp-0x10]
    2ca3:	48 8b 55 e8          	mov    rdx,QWORD PTR [rbp-0x18]
    2ca7:	4c 8b 55 e0          	mov    r10,QWORD PTR [rbp-0x20]
    2cab:	4c 8b 45 d8          	mov    r8,QWORD PTR [rbp-0x28]
    2caf:	4c 8b 4d d0          	mov    r9,QWORD PTR [rbp-0x30]
    2cb3:	0f 05                	syscall
    2cb5:	5d                   	pop    rbp
    2cb6:	c3                   	ret

0000000000002cb7 <__sys_mmap>:
    2cb7:	f3 0f 1e fa          	endbr64
    2cbb:	55                   	push   rbp
    2cbc:	48 89 e5             	mov    rbp,rsp
    2cbf:	48 83 ec 40          	sub    rsp,0x40
    2cc3:	48 89 7d e8          	mov    QWORD PTR [rbp-0x18],rdi
    2cc7:	48 89 75 e0          	mov    QWORD PTR [rbp-0x20],rsi
    2ccb:	48 89 55 d8          	mov    QWORD PTR [rbp-0x28],rdx
    2ccf:	48 89 4d d0          	mov    QWORD PTR [rbp-0x30],rcx
    2cd3:	4c 89 45 c8          	mov    QWORD PTR [rbp-0x38],r8
    2cd7:	4c 89 4d c0          	mov    QWORD PTR [rbp-0x40],r9
    2cdb:	b8 09 00 00 00       	mov    eax,0x9
    2ce0:	48 8b 7d e8          	mov    rdi,QWORD PTR [rbp-0x18]
    2ce4:	48 8b 75 e0          	mov    rsi,QWORD PTR [rbp-0x20]
    2ce8:	48 8b 55 d8          	mov    rdx,QWORD PTR [rbp-0x28]
    2cec:	4c 8b 55 d0          	mov    r10,QWORD PTR [rbp-0x30]
    2cf0:	4c 8b 45 c8          	mov    r8,QWORD PTR [rbp-0x38]
    2cf4:	4c 8b 4d c0          	mov    r9,QWORD PTR [rbp-0x40]
    2cf8:	0f 05                	syscall
    2cfa:	48 89 45 f8          	mov    QWORD PTR [rbp-0x8],rax
    2cfe:	48 85 c0             	test   rax,rax
    2d01:	79 0b                	jns    2d0e <__sys_mmap+0x57>
    2d03:	48 8b 45 f8          	mov    rax,QWORD PTR [rbp-0x8]
    2d07:	89 c7                	mov    edi,eax
    2d09:	e8 a4 e6 ff ff       	call   13b2 <_printi>
    2d0e:	48 8b 45 f8          	mov    rax,QWORD PTR [rbp-0x8]
    2d12:	c9                   	leave
    2d13:	c3                   	ret

0000000000002d14 <__setsockopt>:
    2d14:	f3 0f 1e fa          	endbr64
    2d18:	55                   	push   rbp
    2d19:	48 89 e5             	mov    rbp,rsp
    2d1c:	48 83 ec 40          	sub    rsp,0x40
    2d20:	48 89 7d e8          	mov    QWORD PTR [rbp-0x18],rdi
    2d24:	48 89 75 e0          	mov    QWORD PTR [rbp-0x20],rsi
    2d28:	48 89 55 d8          	mov    QWORD PTR [rbp-0x28],rdx
    2d2c:	48 89 4d d0          	mov    QWORD PTR [rbp-0x30],rcx
    2d30:	4c 89 45 c8          	mov    QWORD PTR [rbp-0x38],r8
    2d34:	b8 36 00 00 00       	mov    eax,0x36
    2d39:	48 8b 7d e8          	mov    rdi,QWORD PTR [rbp-0x18]
    2d3d:	48 8b 75 e0          	mov    rsi,QWORD PTR [rbp-0x20]
    2d41:	48 8b 55 d8          	mov    rdx,QWORD PTR [rbp-0x28]
    2d45:	4c 8b 55 d0          	mov    r10,QWORD PTR [rbp-0x30]
    2d49:	4c 8b 45 c8          	mov    r8,QWORD PTR [rbp-0x38]
    2d4d:	0f 05                	syscall
    2d4f:	48 89 45 f8          	mov    QWORD PTR [rbp-0x8],rax
    2d53:	48 85 c0             	test   rax,rax
    2d56:	79 0b                	jns    2d63 <__setsockopt+0x4f>
    2d58:	48 8b 45 f8          	mov    rax,QWORD PTR [rbp-0x8]
    2d5c:	89 c7                	mov    edi,eax
    2d5e:	e8 4f e6 ff ff       	call   13b2 <_printi>
    2d63:	48 8b 45 f8          	mov    rax,QWORD PTR [rbp-0x8]
    2d67:	c9                   	leave
    2d68:	c3                   	ret

0000000000002d69 <__get_total_mem_used__>:
    2d69:	f3 0f 1e fa          	endbr64
    2d6d:	55                   	push   rbp
    2d6e:	48 89 e5             	mov    rbp,rsp
    2d71:	8b 05 51 37 00 00    	mov    eax,DWORD PTR [rip+0x3751]        # 64c8 <used_mem>
    2d77:	5d                   	pop    rbp
    2d78:	c3                   	ret

0000000000002d79 <__is_heap_init__>:
    2d79:	f3 0f 1e fa          	endbr64
    2d7d:	55                   	push   rbp
    2d7e:	48 89 e5             	mov    rbp,rsp
    2d81:	48 8b 05 38 37 00 00 	mov    rax,QWORD PTR [rip+0x3738]        # 64c0 <_HEAP_>
    2d88:	48 85 c0             	test   rax,rax
    2d8b:	0f 95 c0             	setne  al
    2d8e:	0f b6 c0             	movzx  eax,al
    2d91:	5d                   	pop    rbp
    2d92:	c3                   	ret

0000000000002d93 <set_heap_sz>:
    2d93:	f3 0f 1e fa          	endbr64
    2d97:	55                   	push   rbp
    2d98:	48 89 e5             	mov    rbp,rsp
    2d9b:	89 7d fc             	mov    DWORD PTR [rbp-0x4],edi
    2d9e:	8b 45 fc             	mov    eax,DWORD PTR [rbp-0x4]
    2da1:	89 05 d9 32 00 00    	mov    DWORD PTR [rip+0x32d9],eax        # 6080 <_HEAP_PAGE_>
    2da7:	90                   	nop
    2da8:	5d                   	pop    rbp
    2da9:	c3                   	ret

0000000000002daa <set_heap_debug>:
    2daa:	f3 0f 1e fa          	endbr64
    2dae:	55                   	push   rbp
    2daf:	48 89 e5             	mov    rbp,rsp
    2db2:	c7 05 10 37 00 00 01 	mov    DWORD PTR [rip+0x3710],0x1        # 64cc <HEAP_DEBUG>
    2db9:	00 00 00 
    2dbc:	90                   	nop
    2dbd:	5d                   	pop    rbp
    2dbe:	c3                   	ret

0000000000002dbf <init_mem>:
    2dbf:	f3 0f 1e fa          	endbr64
    2dc3:	55                   	push   rbp
    2dc4:	48 89 e5             	mov    rbp,rsp
    2dc7:	48 83 ec 10          	sub    rsp,0x10
    2dcb:	8b 05 af 32 00 00    	mov    eax,DWORD PTR [rip+0x32af]        # 6080 <_HEAP_PAGE_>
    2dd1:	48 98                	cdqe
    2dd3:	41 b9 00 00 00 00    	mov    r9d,0x0
    2dd9:	49 c7 c0 ff ff ff ff 	mov    r8,0xffffffffffffffff
    2de0:	b9 22 00 00 00       	mov    ecx,0x22
    2de5:	ba 03 00 00 00       	mov    edx,0x3
    2dea:	48 89 c6             	mov    rsi,rax
    2ded:	bf 00 00 00 00       	mov    edi,0x0
    2df2:	e8 c0 fe ff ff       	call   2cb7 <__sys_mmap>
    2df7:	48 89 45 f8          	mov    QWORD PTR [rbp-0x8],rax
    2dfb:	48 83 7d f8 00       	cmp    QWORD PTR [rbp-0x8],0x0
    2e00:	7f 1e                	jg     2e20 <init_mem+0x61>
    2e02:	ba 1b 00 00 00       	mov    edx,0x1b
    2e07:	48 8d 05 7a 12 00 00 	lea    rax,[rip+0x127a]        # 4088 <HEAP_META_SZ+0x4>
    2e0e:	48 89 c6             	mov    rsi,rax
    2e11:	48 8d 05 82 12 00 00 	lea    rax,[rip+0x1282]        # 409a <HEAP_META_SZ+0x16>
    2e18:	48 89 c7             	mov    rdi,rax
    2e1b:	e8 e2 e8 ff ff       	call   1702 <__clibp_panic>
    2e20:	48 8b 45 f8          	mov    rax,QWORD PTR [rbp-0x8]
    2e24:	48 89 05 95 36 00 00 	mov    QWORD PTR [rip+0x3695],rax        # 64c0 <_HEAP_>
    2e2b:	8b 05 4f 32 00 00    	mov    eax,DWORD PTR [rip+0x324f]        # 6080 <_HEAP_PAGE_>
    2e31:	48 63 d0             	movsxd rdx,eax
    2e34:	48 8b 05 85 36 00 00 	mov    rax,QWORD PTR [rip+0x3685]        # 64c0 <_HEAP_>
    2e3b:	be 01 00 00 00       	mov    esi,0x1
    2e40:	48 89 c7             	mov    rdi,rax
    2e43:	e8 10 ea ff ff       	call   1858 <mem_set>
    2e48:	8b 05 7e 36 00 00    	mov    eax,DWORD PTR [rip+0x367e]        # 64cc <HEAP_DEBUG>
    2e4e:	85 c0                	test   eax,eax
    2e50:	75 0a                	jne    2e5c <init_mem+0x9d>
    2e52:	8b 05 48 32 00 00    	mov    eax,DWORD PTR [rip+0x3248]        # 60a0 <__CLIBP_DEBUG__>
    2e58:	85 c0                	test   eax,eax
    2e5a:	74 0f                	je     2e6b <init_mem+0xac>
    2e5c:	48 8d 05 44 12 00 00 	lea    rax,[rip+0x1244]        # 40a7 <HEAP_META_SZ+0x23>
    2e63:	48 89 c7             	mov    rdi,rax
    2e66:	e8 f2 e6 ff ff       	call   155d <print>
    2e6b:	90                   	nop
    2e6c:	c9                   	leave
    2e6d:	c3                   	ret

0000000000002e6e <find_space>:
    2e6e:	f3 0f 1e fa          	endbr64
    2e72:	55                   	push   rbp
    2e73:	48 89 e5             	mov    rbp,rsp
    2e76:	89 7d ec             	mov    DWORD PTR [rbp-0x14],edi
    2e79:	c7 45 fc 00 00 00 00 	mov    DWORD PTR [rbp-0x4],0x0
    2e80:	eb 4f                	jmp    2ed1 <find_space+0x63>
    2e82:	c7 45 f8 01 00 00 00 	mov    DWORD PTR [rbp-0x8],0x1
    2e89:	c7 45 f4 00 00 00 00 	mov    DWORD PTR [rbp-0xc],0x0
    2e90:	eb 28                	jmp    2eba <find_space+0x4c>
    2e92:	48 8b 15 27 36 00 00 	mov    rdx,QWORD PTR [rip+0x3627]        # 64c0 <_HEAP_>
    2e99:	8b 4d fc             	mov    ecx,DWORD PTR [rbp-0x4]
    2e9c:	8b 45 f4             	mov    eax,DWORD PTR [rbp-0xc]
    2e9f:	01 c8                	add    eax,ecx
    2ea1:	48 98                	cdqe
    2ea3:	48 01 d0             	add    rax,rdx
    2ea6:	0f b6 00             	movzx  eax,BYTE PTR [rax]
    2ea9:	3c 01                	cmp    al,0x1
    2eab:	74 09                	je     2eb6 <find_space+0x48>
    2ead:	c7 45 f8 00 00 00 00 	mov    DWORD PTR [rbp-0x8],0x0
    2eb4:	eb 0c                	jmp    2ec2 <find_space+0x54>
    2eb6:	83 45 f4 01          	add    DWORD PTR [rbp-0xc],0x1
    2eba:	8b 45 f4             	mov    eax,DWORD PTR [rbp-0xc]
    2ebd:	3b 45 ec             	cmp    eax,DWORD PTR [rbp-0x14]
    2ec0:	7c d0                	jl     2e92 <find_space+0x24>
    2ec2:	83 7d f8 00          	cmp    DWORD PTR [rbp-0x8],0x0
    2ec6:	74 05                	je     2ecd <find_space+0x5f>
    2ec8:	8b 45 fc             	mov    eax,DWORD PTR [rbp-0x4]
    2ecb:	eb 17                	jmp    2ee4 <find_space+0x76>
    2ecd:	83 45 fc 01          	add    DWORD PTR [rbp-0x4],0x1
    2ed1:	8b 05 a9 31 00 00    	mov    eax,DWORD PTR [rip+0x31a9]        # 6080 <_HEAP_PAGE_>
    2ed7:	2b 45 ec             	sub    eax,DWORD PTR [rbp-0x14]
    2eda:	39 45 fc             	cmp    DWORD PTR [rbp-0x4],eax
    2edd:	7e a3                	jle    2e82 <find_space+0x14>
    2edf:	b8 ff ff ff ff       	mov    eax,0xffffffff
    2ee4:	5d                   	pop    rbp
    2ee5:	c3                   	ret

0000000000002ee6 <allocate>:
    2ee6:	f3 0f 1e fa          	endbr64
    2eea:	55                   	push   rbp
    2eeb:	48 89 e5             	mov    rbp,rsp
    2eee:	48 81 ec c0 00 00 00 	sub    rsp,0xc0
    2ef5:	89 bd 4c ff ff ff    	mov    DWORD PTR [rbp-0xb4],edi
    2efb:	89 b5 48 ff ff ff    	mov    DWORD PTR [rbp-0xb8],esi
    2f01:	83 bd 48 ff ff ff 00 	cmp    DWORD PTR [rbp-0xb8],0x0
    2f08:	75 0a                	jne    2f14 <allocate+0x2e>
    2f0a:	b8 00 00 00 00       	mov    eax,0x0
    2f0f:	e9 b2 01 00 00       	jmp    30c6 <allocate+0x1e0>
    2f14:	8b 15 66 31 00 00    	mov    edx,DWORD PTR [rip+0x3166]        # 6080 <_HEAP_PAGE_>
    2f1a:	8b 05 a8 35 00 00    	mov    eax,DWORD PTR [rip+0x35a8]        # 64c8 <used_mem>
    2f20:	29 c2                	sub    edx,eax
    2f22:	89 55 fc             	mov    DWORD PTR [rbp-0x4],edx
    2f25:	83 bd 4c ff ff ff 00 	cmp    DWORD PTR [rbp-0xb4],0x0
    2f2c:	74 0f                	je     2f3d <allocate+0x57>
    2f2e:	8b 85 4c ff ff ff    	mov    eax,DWORD PTR [rbp-0xb4]
    2f34:	0f af 85 48 ff ff ff 	imul   eax,DWORD PTR [rbp-0xb8]
    2f3b:	eb 06                	jmp    2f43 <allocate+0x5d>
    2f3d:	8b 85 48 ff ff ff    	mov    eax,DWORD PTR [rbp-0xb8]
    2f43:	ba 18 00 00 00       	mov    edx,0x18
    2f48:	01 d0                	add    eax,edx
    2f4a:	89 45 f8             	mov    DWORD PTR [rbp-0x8],eax
    2f4d:	8b 45 fc             	mov    eax,DWORD PTR [rbp-0x4]
    2f50:	3b 45 f8             	cmp    eax,DWORD PTR [rbp-0x8]
    2f53:	7d 0a                	jge    2f5f <allocate+0x79>
    2f55:	b8 00 00 00 00       	mov    eax,0x0
    2f5a:	e9 67 01 00 00       	jmp    30c6 <allocate+0x1e0>
    2f5f:	8b 45 f8             	mov    eax,DWORD PTR [rbp-0x8]
    2f62:	89 c7                	mov    edi,eax
    2f64:	e8 05 ff ff ff       	call   2e6e <find_space>
    2f69:	89 45 f4             	mov    DWORD PTR [rbp-0xc],eax
    2f6c:	83 7d f4 ff          	cmp    DWORD PTR [rbp-0xc],0xffffffff
    2f70:	75 1e                	jne    2f90 <allocate+0xaa>
    2f72:	ba 41 00 00 00       	mov    edx,0x41
    2f77:	48 8d 05 0a 11 00 00 	lea    rax,[rip+0x110a]        # 4088 <HEAP_META_SZ+0x4>
    2f7e:	48 89 c6             	mov    rsi,rax
    2f81:	48 8d 05 38 11 00 00 	lea    rax,[rip+0x1138]        # 40c0 <HEAP_META_SZ+0x3c>
    2f88:	48 89 c7             	mov    rdi,rax
    2f8b:	e8 72 e7 ff ff       	call   1702 <__clibp_panic>
    2f90:	48 8b 15 29 35 00 00 	mov    rdx,QWORD PTR [rip+0x3529]        # 64c0 <_HEAP_>
    2f97:	8b 45 f4             	mov    eax,DWORD PTR [rbp-0xc]
    2f9a:	48 98                	cdqe
    2f9c:	48 01 d0             	add    rax,rdx
    2f9f:	48 89 45 e8          	mov    QWORD PTR [rbp-0x18],rax
    2fa3:	8b 85 4c ff ff ff    	mov    eax,DWORD PTR [rbp-0xb4]
    2fa9:	89 45 c0             	mov    DWORD PTR [rbp-0x40],eax
    2fac:	8b 85 48 ff ff ff    	mov    eax,DWORD PTR [rbp-0xb8]
    2fb2:	48 98                	cdqe
    2fb4:	48 89 45 c8          	mov    QWORD PTR [rbp-0x38],rax
    2fb8:	c7 45 d0 7c 00 00 00 	mov    DWORD PTR [rbp-0x30],0x7c
    2fbf:	b8 18 00 00 00       	mov    eax,0x18
    2fc4:	48 63 d0             	movsxd rdx,eax
    2fc7:	48 8d 4d c0          	lea    rcx,[rbp-0x40]
    2fcb:	48 8b 45 e8          	mov    rax,QWORD PTR [rbp-0x18]
    2fcf:	48 89 ce             	mov    rsi,rcx
    2fd2:	48 89 c7             	mov    rdi,rax
    2fd5:	e8 2f e8 ff ff       	call   1809 <mem_cpy>
    2fda:	ba 18 00 00 00       	mov    edx,0x18
    2fdf:	8b 45 f8             	mov    eax,DWORD PTR [rbp-0x8]
    2fe2:	29 d0                	sub    eax,edx
    2fe4:	48 98                	cdqe
    2fe6:	ba 18 00 00 00       	mov    edx,0x18
    2feb:	48 63 ca             	movsxd rcx,edx
    2fee:	48 8b 55 e8          	mov    rdx,QWORD PTR [rbp-0x18]
    2ff2:	48 01 d1             	add    rcx,rdx
    2ff5:	48 89 c2             	mov    rdx,rax
    2ff8:	be 00 00 00 00       	mov    esi,0x0
    2ffd:	48 89 cf             	mov    rdi,rcx
    3000:	e8 53 e8 ff ff       	call   1858 <mem_set>
    3005:	8b 15 bd 34 00 00    	mov    edx,DWORD PTR [rip+0x34bd]        # 64c8 <used_mem>
    300b:	8b 45 f8             	mov    eax,DWORD PTR [rbp-0x8]
    300e:	01 d0                	add    eax,edx
    3010:	89 05 b2 34 00 00    	mov    DWORD PTR [rip+0x34b2],eax        # 64c8 <used_mem>
    3016:	8b 05 b0 34 00 00    	mov    eax,DWORD PTR [rip+0x34b0]        # 64cc <HEAP_DEBUG>
    301c:	85 c0                	test   eax,eax
    301e:	75 0e                	jne    302e <allocate+0x148>
    3020:	8b 05 7a 30 00 00    	mov    eax,DWORD PTR [rip+0x307a]        # 60a0 <__CLIBP_DEBUG__>
    3026:	85 c0                	test   eax,eax
    3028:	0f 84 89 00 00 00    	je     30b7 <allocate+0x1d1>
    302e:	48 8d 95 50 ff ff ff 	lea    rdx,[rbp-0xb0]
    3035:	48 8b 45 e8          	mov    rax,QWORD PTR [rbp-0x18]
    3039:	48 89 d6             	mov    rsi,rdx
    303c:	48 89 c7             	mov    rdi,rax
    303f:	e8 58 e8 ff ff       	call   189c <ptr_to_str>
    3044:	48 8d 05 8c 10 00 00 	lea    rax,[rip+0x108c]        # 40d7 <HEAP_META_SZ+0x53>
    304b:	48 89 c7             	mov    rdi,rax
    304e:	e8 0a e5 ff ff       	call   155d <print>
    3053:	83 bd 4c ff ff ff 00 	cmp    DWORD PTR [rbp-0xb4],0x0
    305a:	74 0f                	je     306b <allocate+0x185>
    305c:	8b 85 4c ff ff ff    	mov    eax,DWORD PTR [rbp-0xb4]
    3062:	0f af 85 48 ff ff ff 	imul   eax,DWORD PTR [rbp-0xb8]
    3069:	eb 06                	jmp    3071 <allocate+0x18b>
    306b:	8b 85 48 ff ff ff    	mov    eax,DWORD PTR [rbp-0xb8]
    3071:	89 c7                	mov    edi,eax
    3073:	e8 3a e3 ff ff       	call   13b2 <_printi>
    3078:	48 8d 05 69 10 00 00 	lea    rax,[rip+0x1069]        # 40e8 <HEAP_META_SZ+0x64>
    307f:	48 89 c7             	mov    rdi,rax
    3082:	e8 d6 e4 ff ff       	call   155d <print>
    3087:	48 8d 85 50 ff ff ff 	lea    rax,[rbp-0xb0]
    308e:	48 89 c7             	mov    rdi,rax
    3091:	e8 19 e5 ff ff       	call   15af <println>
    3096:	83 bd 4c ff ff ff 00 	cmp    DWORD PTR [rbp-0xb4],0x0
    309d:	74 0f                	je     30ae <allocate+0x1c8>
    309f:	8b 85 4c ff ff ff    	mov    eax,DWORD PTR [rbp-0xb4]
    30a5:	0f af 85 48 ff ff ff 	imul   eax,DWORD PTR [rbp-0xb8]
    30ac:	eb 06                	jmp    30b4 <allocate+0x1ce>
    30ae:	8b 85 48 ff ff ff    	mov    eax,DWORD PTR [rbp-0xb8]
    30b4:	89 45 e4             	mov    DWORD PTR [rbp-0x1c],eax
    30b7:	b8 18 00 00 00       	mov    eax,0x18
    30bc:	48 63 d0             	movsxd rdx,eax
    30bf:	48 8b 45 e8          	mov    rax,QWORD PTR [rbp-0x18]
    30c3:	48 01 d0             	add    rax,rdx
    30c6:	c9                   	leave
    30c7:	c3                   	ret

00000000000030c8 <reallocate>:
    30c8:	f3 0f 1e fa          	endbr64
    30cc:	55                   	push   rbp
    30cd:	48 89 e5             	mov    rbp,rsp
    30d0:	48 83 ec 20          	sub    rsp,0x20
    30d4:	48 89 7d e8          	mov    QWORD PTR [rbp-0x18],rdi
    30d8:	89 75 e4             	mov    DWORD PTR [rbp-0x1c],esi
    30db:	8b 45 e4             	mov    eax,DWORD PTR [rbp-0x1c]
    30de:	83 c0 01             	add    eax,0x1
    30e1:	89 c6                	mov    esi,eax
    30e3:	bf 00 00 00 00       	mov    edi,0x0
    30e8:	e8 f9 fd ff ff       	call   2ee6 <allocate>
    30ed:	48 89 45 f8          	mov    QWORD PTR [rbp-0x8],rax
    30f1:	48 83 7d f8 00       	cmp    QWORD PTR [rbp-0x8],0x0
    30f6:	75 1e                	jne    3116 <reallocate+0x4e>
    30f8:	ba 5a 00 00 00       	mov    edx,0x5a
    30fd:	48 8d 05 84 0f 00 00 	lea    rax,[rip+0xf84]        # 4088 <HEAP_META_SZ+0x4>
    3104:	48 89 c6             	mov    rsi,rax
    3107:	48 8d 05 df 0f 00 00 	lea    rax,[rip+0xfdf]        # 40ed <HEAP_META_SZ+0x69>
    310e:	48 89 c7             	mov    rdi,rax
    3111:	e8 ec e5 ff ff       	call   1702 <__clibp_panic>
    3116:	48 8b 45 e8          	mov    rax,QWORD PTR [rbp-0x18]
    311a:	48 89 c7             	mov    rdi,rax
    311d:	e8 4f 00 00 00       	call   3171 <__get_size__>
    3122:	48 63 d0             	movsxd rdx,eax
    3125:	48 8b 4d e8          	mov    rcx,QWORD PTR [rbp-0x18]
    3129:	48 8b 45 f8          	mov    rax,QWORD PTR [rbp-0x8]
    312d:	48 89 ce             	mov    rsi,rcx
    3130:	48 89 c7             	mov    rdi,rax
    3133:	e8 d1 e6 ff ff       	call   1809 <mem_cpy>
    3138:	48 8b 45 e8          	mov    rax,QWORD PTR [rbp-0x18]
    313c:	be 01 00 00 00       	mov    esi,0x1
    3141:	48 89 c7             	mov    rdi,rax
    3144:	e8 f8 00 00 00       	call   3241 <pfree>
    3149:	48 8b 45 f8          	mov    rax,QWORD PTR [rbp-0x8]
    314d:	c9                   	leave
    314e:	c3                   	ret

000000000000314f <__get_meta__>:
    314f:	f3 0f 1e fa          	endbr64
    3153:	55                   	push   rbp
    3154:	48 89 e5             	mov    rbp,rsp
    3157:	48 89 7d f8          	mov    QWORD PTR [rbp-0x8],rdi
    315b:	b8 18 00 00 00       	mov    eax,0x18
    3160:	48 98                	cdqe
    3162:	48 f7 d8             	neg    rax
    3165:	48 89 c2             	mov    rdx,rax
    3168:	48 8b 45 f8          	mov    rax,QWORD PTR [rbp-0x8]
    316c:	48 01 d0             	add    rax,rdx
    316f:	5d                   	pop    rbp
    3170:	c3                   	ret

0000000000003171 <__get_size__>:
    3171:	f3 0f 1e fa          	endbr64
    3175:	55                   	push   rbp
    3176:	48 89 e5             	mov    rbp,rsp
    3179:	48 83 ec 18          	sub    rsp,0x18
    317d:	48 89 7d e8          	mov    QWORD PTR [rbp-0x18],rdi
    3181:	48 8b 45 e8          	mov    rax,QWORD PTR [rbp-0x18]
    3185:	48 89 c7             	mov    rdi,rax
    3188:	e8 c2 ff ff ff       	call   314f <__get_meta__>
    318d:	48 89 45 f8          	mov    QWORD PTR [rbp-0x8],rax
    3191:	48 8b 45 f8          	mov    rax,QWORD PTR [rbp-0x8]
    3195:	8b 00                	mov    eax,DWORD PTR [rax]
    3197:	85 c0                	test   eax,eax
    3199:	75 0a                	jne    31a5 <__get_size__+0x34>
    319b:	48 8b 45 f8          	mov    rax,QWORD PTR [rbp-0x8]
    319f:	48 8b 40 08          	mov    rax,QWORD PTR [rax+0x8]
    31a3:	eb 15                	jmp    31ba <__get_size__+0x49>
    31a5:	48 8b 45 f8          	mov    rax,QWORD PTR [rbp-0x8]
    31a9:	8b 00                	mov    eax,DWORD PTR [rax]
    31ab:	48 98                	cdqe
    31ad:	89 c2                	mov    edx,eax
    31af:	48 8b 45 f8          	mov    rax,QWORD PTR [rbp-0x8]
    31b3:	48 8b 40 08          	mov    rax,QWORD PTR [rax+0x8]
    31b7:	0f af c2             	imul   eax,edx
    31ba:	c9                   	leave
    31bb:	c3                   	ret

00000000000031bc <pfree_array>:
    31bc:	f3 0f 1e fa          	endbr64
    31c0:	55                   	push   rbp
    31c1:	48 89 e5             	mov    rbp,rsp
    31c4:	48 83 ec 20          	sub    rsp,0x20
    31c8:	48 89 7d e8          	mov    QWORD PTR [rbp-0x18],rdi
    31cc:	c7 45 fc 00 00 00 00 	mov    DWORD PTR [rbp-0x4],0x0
    31d3:	eb 28                	jmp    31fd <pfree_array+0x41>
    31d5:	8b 45 fc             	mov    eax,DWORD PTR [rbp-0x4]
    31d8:	48 98                	cdqe
    31da:	48 8d 14 c5 00 00 00 	lea    rdx,[rax*8+0x0]
    31e1:	00 
    31e2:	48 8b 45 e8          	mov    rax,QWORD PTR [rbp-0x18]
    31e6:	48 01 d0             	add    rax,rdx
    31e9:	48 8b 00             	mov    rax,QWORD PTR [rax]
    31ec:	be 01 00 00 00       	mov    esi,0x1
    31f1:	48 89 c7             	mov    rdi,rax
    31f4:	e8 48 00 00 00       	call   3241 <pfree>
    31f9:	83 45 fc 01          	add    DWORD PTR [rbp-0x4],0x1
    31fd:	8b 45 fc             	mov    eax,DWORD PTR [rbp-0x4]
    3200:	48 98                	cdqe
    3202:	48 8d 14 c5 00 00 00 	lea    rdx,[rax*8+0x0]
    3209:	00 
    320a:	48 8b 45 e8          	mov    rax,QWORD PTR [rbp-0x18]
    320e:	48 01 d0             	add    rax,rdx
    3211:	48 8b 00             	mov    rax,QWORD PTR [rax]
    3214:	48 85 c0             	test   rax,rax
    3217:	75 bc                	jne    31d5 <pfree_array+0x19>
    3219:	90                   	nop
    321a:	90                   	nop
    321b:	c9                   	leave
    321c:	c3                   	ret

000000000000321d <_pfree>:
    321d:	f3 0f 1e fa          	endbr64
    3221:	55                   	push   rbp
    3222:	48 89 e5             	mov    rbp,rsp
    3225:	48 83 ec 10          	sub    rsp,0x10
    3229:	48 89 7d f8          	mov    QWORD PTR [rbp-0x8],rdi
    322d:	48 8b 45 f8          	mov    rax,QWORD PTR [rbp-0x8]
    3231:	be 01 00 00 00       	mov    esi,0x1
    3236:	48 89 c7             	mov    rdi,rax
    3239:	e8 03 00 00 00       	call   3241 <pfree>
    323e:	90                   	nop
    323f:	c9                   	leave
    3240:	c3                   	ret

0000000000003241 <pfree>:
    3241:	f3 0f 1e fa          	endbr64
    3245:	55                   	push   rbp
    3246:	48 89 e5             	mov    rbp,rsp
    3249:	48 81 ec 90 00 00 00 	sub    rsp,0x90
    3250:	48 89 bd 78 ff ff ff 	mov    QWORD PTR [rbp-0x88],rdi
    3257:	89 b5 74 ff ff ff    	mov    DWORD PTR [rbp-0x8c],esi
    325d:	48 83 bd 78 ff ff ff 	cmp    QWORD PTR [rbp-0x88],0x0
    3264:	00 
    3265:	0f 84 bf 00 00 00    	je     332a <pfree+0xe9>
    326b:	48 8b 85 78 ff ff ff 	mov    rax,QWORD PTR [rbp-0x88]
    3272:	48 89 c7             	mov    rdi,rax
    3275:	e8 d5 fe ff ff       	call   314f <__get_meta__>
    327a:	48 89 45 f8          	mov    QWORD PTR [rbp-0x8],rax
    327e:	48 8b 45 f8          	mov    rax,QWORD PTR [rbp-0x8]
    3282:	8b 00                	mov    eax,DWORD PTR [rax]
    3284:	85 c0                	test   eax,eax
    3286:	74 17                	je     329f <pfree+0x5e>
    3288:	48 8b 45 f8          	mov    rax,QWORD PTR [rbp-0x8]
    328c:	8b 00                	mov    eax,DWORD PTR [rax]
    328e:	48 98                	cdqe
    3290:	89 c2                	mov    edx,eax
    3292:	48 8b 45 f8          	mov    rax,QWORD PTR [rbp-0x8]
    3296:	48 8b 40 08          	mov    rax,QWORD PTR [rax+0x8]
    329a:	0f af c2             	imul   eax,edx
    329d:	eb 08                	jmp    32a7 <pfree+0x66>
    329f:	48 8b 45 f8          	mov    rax,QWORD PTR [rbp-0x8]
    32a3:	48 8b 40 08          	mov    rax,QWORD PTR [rax+0x8]
    32a7:	89 45 f4             	mov    DWORD PTR [rbp-0xc],eax
    32aa:	ba 18 00 00 00       	mov    edx,0x18
    32af:	8b 45 f4             	mov    eax,DWORD PTR [rbp-0xc]
    32b2:	01 d0                	add    eax,edx
    32b4:	89 45 f0             	mov    DWORD PTR [rbp-0x10],eax
    32b7:	83 bd 74 ff ff ff 00 	cmp    DWORD PTR [rbp-0x8c],0x0
    32be:	74 17                	je     32d7 <pfree+0x96>
    32c0:	8b 45 f0             	mov    eax,DWORD PTR [rbp-0x10]
    32c3:	48 63 d0             	movsxd rdx,eax
    32c6:	48 8b 45 f8          	mov    rax,QWORD PTR [rbp-0x8]
    32ca:	be 01 00 00 00       	mov    esi,0x1
    32cf:	48 89 c7             	mov    rdi,rax
    32d2:	e8 81 e5 ff ff       	call   1858 <mem_set>
    32d7:	8b 05 eb 31 00 00    	mov    eax,DWORD PTR [rip+0x31eb]        # 64c8 <used_mem>
    32dd:	2b 45 f0             	sub    eax,DWORD PTR [rbp-0x10]
    32e0:	89 05 e2 31 00 00    	mov    DWORD PTR [rip+0x31e2],eax        # 64c8 <used_mem>
    32e6:	8b 05 e0 31 00 00    	mov    eax,DWORD PTR [rip+0x31e0]        # 64cc <HEAP_DEBUG>
    32ec:	85 c0                	test   eax,eax
    32ee:	75 0a                	jne    32fa <pfree+0xb9>
    32f0:	8b 05 aa 2d 00 00    	mov    eax,DWORD PTR [rip+0x2daa]        # 60a0 <__CLIBP_DEBUG__>
    32f6:	85 c0                	test   eax,eax
    32f8:	74 31                	je     332b <pfree+0xea>
    32fa:	48 8d 55 80          	lea    rdx,[rbp-0x80]
    32fe:	48 8b 45 f8          	mov    rax,QWORD PTR [rbp-0x8]
    3302:	48 89 d6             	mov    rsi,rdx
    3305:	48 89 c7             	mov    rdi,rax
    3308:	e8 8f e5 ff ff       	call   189c <ptr_to_str>
    330d:	48 8d 05 e2 0d 00 00 	lea    rax,[rip+0xde2]        # 40f6 <HEAP_META_SZ+0x72>
    3314:	48 89 c7             	mov    rdi,rax
    3317:	e8 41 e2 ff ff       	call   155d <print>
    331c:	48 8d 45 80          	lea    rax,[rbp-0x80]
    3320:	48 89 c7             	mov    rdi,rax
    3323:	e8 87 e2 ff ff       	call   15af <println>
    3328:	eb 01                	jmp    332b <pfree+0xea>
    332a:	90                   	nop
    332b:	c9                   	leave
    332c:	c3                   	ret

000000000000332d <uninit_mem>:
    332d:	f3 0f 1e fa          	endbr64
    3331:	55                   	push   rbp
    3332:	48 89 e5             	mov    rbp,rsp
    3335:	8b 05 91 31 00 00    	mov    eax,DWORD PTR [rip+0x3191]        # 64cc <HEAP_DEBUG>
    333b:	85 c0                	test   eax,eax
    333d:	75 0a                	jne    3349 <uninit_mem+0x1c>
    333f:	8b 05 5b 2d 00 00    	mov    eax,DWORD PTR [rip+0x2d5b]        # 60a0 <__CLIBP_DEBUG__>
    3345:	85 c0                	test   eax,eax
    3347:	74 0f                	je     3358 <uninit_mem+0x2b>
    3349:	48 8d 05 c4 0d 00 00 	lea    rax,[rip+0xdc4]        # 4114 <HEAP_META_SZ+0x90>
    3350:	48 89 c7             	mov    rdi,rax
    3353:	e8 57 e2 ff ff       	call   15af <println>
    3358:	8b 05 22 2d 00 00    	mov    eax,DWORD PTR [rip+0x2d22]        # 6080 <_HEAP_PAGE_>
    335e:	48 98                	cdqe
    3360:	48 8b 15 59 31 00 00 	mov    rdx,QWORD PTR [rip+0x3159]        # 64c0 <_HEAP_>
    3367:	48 89 d7             	mov    rdi,rdx
    336a:	48 83 ec 08          	sub    rsp,0x8
    336e:	6a 0b                	push   0xb
    3370:	41 b9 00 00 00 00    	mov    r9d,0x0
    3376:	41 b8 00 00 00 00    	mov    r8d,0x0
    337c:	b9 00 00 00 00       	mov    ecx,0x0
    3381:	ba 00 00 00 00       	mov    edx,0x0
    3386:	48 89 c6             	mov    rsi,rax
    3389:	e8 3e f8 ff ff       	call   2bcc <__syscall__>
    338e:	48 83 c4 10          	add    rsp,0x10
    3392:	90                   	nop
    3393:	c9                   	leave
    3394:	c3                   	ret

0000000000003395 <is_ascii>:
    3395:	f3 0f 1e fa          	endbr64
    3399:	55                   	push   rbp
    339a:	48 89 e5             	mov    rbp,rsp
    339d:	89 f8                	mov    eax,edi
    339f:	88 45 fc             	mov    BYTE PTR [rbp-0x4],al
    33a2:	0f b6 45 fc          	movzx  eax,BYTE PTR [rbp-0x4]
    33a6:	f7 d0                	not    eax
    33a8:	c0 e8 07             	shr    al,0x7
    33ab:	0f b6 c0             	movzx  eax,al
    33ae:	5d                   	pop    rbp
    33af:	c3                   	ret

00000000000033b0 <is_ascii_alpha>:
    33b0:	f3 0f 1e fa          	endbr64
    33b4:	55                   	push   rbp
    33b5:	48 89 e5             	mov    rbp,rsp
    33b8:	89 f8                	mov    eax,edi
    33ba:	88 45 ec             	mov    BYTE PTR [rbp-0x14],al
    33bd:	0f b6 45 ec          	movzx  eax,BYTE PTR [rbp-0x14]
    33c1:	88 45 ff             	mov    BYTE PTR [rbp-0x1],al
    33c4:	80 7d ff 61          	cmp    BYTE PTR [rbp-0x1],0x61
    33c8:	76 06                	jbe    33d0 <is_ascii_alpha+0x20>
    33ca:	80 7d ff 79          	cmp    BYTE PTR [rbp-0x1],0x79
    33ce:	76 0c                	jbe    33dc <is_ascii_alpha+0x2c>
    33d0:	80 7d ff 41          	cmp    BYTE PTR [rbp-0x1],0x41
    33d4:	76 0d                	jbe    33e3 <is_ascii_alpha+0x33>
    33d6:	80 7d ff 59          	cmp    BYTE PTR [rbp-0x1],0x59
    33da:	77 07                	ja     33e3 <is_ascii_alpha+0x33>
    33dc:	b8 01 00 00 00       	mov    eax,0x1
    33e1:	eb 05                	jmp    33e8 <is_ascii_alpha+0x38>
    33e3:	b8 00 00 00 00       	mov    eax,0x0
    33e8:	5d                   	pop    rbp
    33e9:	c3                   	ret

00000000000033ea <count_char>:
    33ea:	f3 0f 1e fa          	endbr64
    33ee:	55                   	push   rbp
    33ef:	48 89 e5             	mov    rbp,rsp
    33f2:	48 89 7d e8          	mov    QWORD PTR [rbp-0x18],rdi
    33f6:	89 f0                	mov    eax,esi
    33f8:	88 45 e4             	mov    BYTE PTR [rbp-0x1c],al
    33fb:	48 83 7d e8 00       	cmp    QWORD PTR [rbp-0x18],0x0
    3400:	75 07                	jne    3409 <count_char+0x1f>
    3402:	b8 ff ff ff ff       	mov    eax,0xffffffff
    3407:	eb 44                	jmp    344d <count_char+0x63>
    3409:	c7 45 f8 00 00 00 00 	mov    DWORD PTR [rbp-0x8],0x0
    3410:	c7 45 fc 00 00 00 00 	mov    DWORD PTR [rbp-0x4],0x0
    3417:	eb 1d                	jmp    3436 <count_char+0x4c>
    3419:	8b 45 fc             	mov    eax,DWORD PTR [rbp-0x4]
    341c:	48 63 d0             	movsxd rdx,eax
    341f:	48 8b 45 e8          	mov    rax,QWORD PTR [rbp-0x18]
    3423:	48 01 d0             	add    rax,rdx
    3426:	0f b6 00             	movzx  eax,BYTE PTR [rax]
    3429:	38 45 e4             	cmp    BYTE PTR [rbp-0x1c],al
    342c:	75 04                	jne    3432 <count_char+0x48>
    342e:	83 45 f8 01          	add    DWORD PTR [rbp-0x8],0x1
    3432:	83 45 fc 01          	add    DWORD PTR [rbp-0x4],0x1
    3436:	8b 45 fc             	mov    eax,DWORD PTR [rbp-0x4]
    3439:	48 63 d0             	movsxd rdx,eax
    343c:	48 8b 45 e8          	mov    rax,QWORD PTR [rbp-0x18]
    3440:	48 01 d0             	add    rax,rdx
    3443:	0f b6 00             	movzx  eax,BYTE PTR [rax]
    3446:	84 c0                	test   al,al
    3448:	75 cf                	jne    3419 <count_char+0x2f>
    344a:	8b 45 f8             	mov    eax,DWORD PTR [rbp-0x8]
    344d:	5d                   	pop    rbp
    344e:	c3                   	ret

000000000000344f <find_char>:
    344f:	f3 0f 1e fa          	endbr64
    3453:	55                   	push   rbp
    3454:	48 89 e5             	mov    rbp,rsp
    3457:	48 83 ec 10          	sub    rsp,0x10
    345b:	48 89 7d f8          	mov    QWORD PTR [rbp-0x8],rdi
    345f:	89 f0                	mov    eax,esi
    3461:	88 45 f4             	mov    BYTE PTR [rbp-0xc],al
    3464:	0f be 4d f4          	movsx  ecx,BYTE PTR [rbp-0xc]
    3468:	48 8b 45 f8          	mov    rax,QWORD PTR [rbp-0x8]
    346c:	ba 01 00 00 00       	mov    edx,0x1
    3471:	89 ce                	mov    esi,ecx
    3473:	48 89 c7             	mov    rdi,rax
    3476:	e8 02 00 00 00       	call   347d <find_char_at>
    347b:	c9                   	leave
    347c:	c3                   	ret

000000000000347d <find_char_at>:
    347d:	f3 0f 1e fa          	endbr64
    3481:	55                   	push   rbp
    3482:	48 89 e5             	mov    rbp,rsp
    3485:	48 89 7d e8          	mov    QWORD PTR [rbp-0x18],rdi
    3489:	89 f0                	mov    eax,esi
    348b:	89 55 e0             	mov    DWORD PTR [rbp-0x20],edx
    348e:	88 45 e4             	mov    BYTE PTR [rbp-0x1c],al
    3491:	48 83 7d e8 00       	cmp    QWORD PTR [rbp-0x18],0x0
    3496:	75 07                	jne    349f <find_char_at+0x22>
    3498:	b8 ff ff ff ff       	mov    eax,0xffffffff
    349d:	eb 53                	jmp    34f2 <find_char_at+0x75>
    349f:	c7 45 f8 00 00 00 00 	mov    DWORD PTR [rbp-0x8],0x0
    34a6:	c7 45 fc 00 00 00 00 	mov    DWORD PTR [rbp-0x4],0x0
    34ad:	eb 2a                	jmp    34d9 <find_char_at+0x5c>
    34af:	8b 45 fc             	mov    eax,DWORD PTR [rbp-0x4]
    34b2:	48 63 d0             	movsxd rdx,eax
    34b5:	48 8b 45 e8          	mov    rax,QWORD PTR [rbp-0x18]
    34b9:	48 01 d0             	add    rax,rdx
    34bc:	0f b6 00             	movzx  eax,BYTE PTR [rax]
    34bf:	38 45 e4             	cmp    BYTE PTR [rbp-0x1c],al
    34c2:	75 04                	jne    34c8 <find_char_at+0x4b>
    34c4:	83 45 f8 01          	add    DWORD PTR [rbp-0x8],0x1
    34c8:	8b 45 e0             	mov    eax,DWORD PTR [rbp-0x20]
    34cb:	3b 45 f8             	cmp    eax,DWORD PTR [rbp-0x8]
    34ce:	75 05                	jne    34d5 <find_char_at+0x58>
    34d0:	8b 45 fc             	mov    eax,DWORD PTR [rbp-0x4]
    34d3:	eb 1d                	jmp    34f2 <find_char_at+0x75>
    34d5:	83 45 fc 01          	add    DWORD PTR [rbp-0x4],0x1
    34d9:	8b 45 fc             	mov    eax,DWORD PTR [rbp-0x4]
    34dc:	48 63 d0             	movsxd rdx,eax
    34df:	48 8b 45 e8          	mov    rax,QWORD PTR [rbp-0x18]
    34e3:	48 01 d0             	add    rax,rdx
    34e6:	0f b6 00             	movzx  eax,BYTE PTR [rax]
    34e9:	84 c0                	test   al,al
    34eb:	75 c2                	jne    34af <find_char_at+0x32>
    34ed:	b8 ff ff ff ff       	mov    eax,0xffffffff
    34f2:	5d                   	pop    rbp
    34f3:	c3                   	ret

00000000000034f4 <_find_char_at>:
    34f4:	f3 0f 1e fa          	endbr64
    34f8:	55                   	push   rbp
    34f9:	48 89 e5             	mov    rbp,rsp
    34fc:	48 89 7d e8          	mov    QWORD PTR [rbp-0x18],rdi
    3500:	89 f0                	mov    eax,esi
    3502:	89 55 e0             	mov    DWORD PTR [rbp-0x20],edx
    3505:	48 89 4d d8          	mov    QWORD PTR [rbp-0x28],rcx
    3509:	88 45 e4             	mov    BYTE PTR [rbp-0x1c],al
    350c:	48 83 7d e8 00       	cmp    QWORD PTR [rbp-0x18],0x0
    3511:	75 07                	jne    351a <_find_char_at+0x26>
    3513:	b8 ff ff ff ff       	mov    eax,0xffffffff
    3518:	eb 60                	jmp    357a <_find_char_at+0x86>
    351a:	c7 45 fc 00 00 00 00 	mov    DWORD PTR [rbp-0x4],0x0
    3521:	eb 3b                	jmp    355e <_find_char_at+0x6a>
    3523:	48 8b 45 d8          	mov    rax,QWORD PTR [rbp-0x28]
    3527:	8b 00                	mov    eax,DWORD PTR [rax]
    3529:	48 63 d0             	movsxd rdx,eax
    352c:	48 8b 45 e8          	mov    rax,QWORD PTR [rbp-0x18]
    3530:	48 01 d0             	add    rax,rdx
    3533:	0f b6 00             	movzx  eax,BYTE PTR [rax]
    3536:	38 45 e4             	cmp    BYTE PTR [rbp-0x1c],al
    3539:	75 04                	jne    353f <_find_char_at+0x4b>
    353b:	83 45 fc 01          	add    DWORD PTR [rbp-0x4],0x1
    353f:	8b 45 fc             	mov    eax,DWORD PTR [rbp-0x4]
    3542:	3b 45 e0             	cmp    eax,DWORD PTR [rbp-0x20]
    3545:	75 08                	jne    354f <_find_char_at+0x5b>
    3547:	48 8b 45 d8          	mov    rax,QWORD PTR [rbp-0x28]
    354b:	8b 00                	mov    eax,DWORD PTR [rax]
    354d:	eb 2b                	jmp    357a <_find_char_at+0x86>
    354f:	48 8b 45 d8          	mov    rax,QWORD PTR [rbp-0x28]
    3553:	8b 00                	mov    eax,DWORD PTR [rax]
    3555:	8d 50 01             	lea    edx,[rax+0x1]
    3558:	48 8b 45 d8          	mov    rax,QWORD PTR [rbp-0x28]
    355c:	89 10                	mov    DWORD PTR [rax],edx
    355e:	48 8b 45 d8          	mov    rax,QWORD PTR [rbp-0x28]
    3562:	8b 00                	mov    eax,DWORD PTR [rax]
    3564:	48 63 d0             	movsxd rdx,eax
    3567:	48 8b 45 e8          	mov    rax,QWORD PTR [rbp-0x18]
    356b:	48 01 d0             	add    rax,rdx
    356e:	0f b6 00             	movzx  eax,BYTE PTR [rax]
    3571:	84 c0                	test   al,al
    3573:	75 ae                	jne    3523 <_find_char_at+0x2f>
    3575:	b8 ff ff ff ff       	mov    eax,0xffffffff
    357a:	5d                   	pop    rbp
    357b:	c3                   	ret

000000000000357c <replace_char>:
    357c:	f3 0f 1e fa          	endbr64
    3580:	55                   	push   rbp
    3581:	48 89 e5             	mov    rbp,rsp
    3584:	48 89 7d e8          	mov    QWORD PTR [rbp-0x18],rdi
    3588:	89 f1                	mov    ecx,esi
    358a:	89 d0                	mov    eax,edx
    358c:	89 ca                	mov    edx,ecx
    358e:	88 55 e4             	mov    BYTE PTR [rbp-0x1c],dl
    3591:	88 45 e0             	mov    BYTE PTR [rbp-0x20],al
    3594:	48 83 7d e8 00       	cmp    QWORD PTR [rbp-0x18],0x0
    3599:	75 07                	jne    35a2 <replace_char+0x26>
    359b:	b8 00 00 00 00       	mov    eax,0x0
    35a0:	eb 57                	jmp    35f9 <replace_char+0x7d>
    35a2:	c7 45 fc 00 00 00 00 	mov    DWORD PTR [rbp-0x4],0x0
    35a9:	c7 45 f8 00 00 00 00 	mov    DWORD PTR [rbp-0x8],0x0
    35b0:	eb 30                	jmp    35e2 <replace_char+0x66>
    35b2:	8b 45 f8             	mov    eax,DWORD PTR [rbp-0x8]
    35b5:	48 63 d0             	movsxd rdx,eax
    35b8:	48 8b 45 e8          	mov    rax,QWORD PTR [rbp-0x18]
    35bc:	48 01 d0             	add    rax,rdx
    35bf:	0f b6 00             	movzx  eax,BYTE PTR [rax]
    35c2:	38 45 e4             	cmp    BYTE PTR [rbp-0x1c],al
    35c5:	75 17                	jne    35de <replace_char+0x62>
    35c7:	8b 45 f8             	mov    eax,DWORD PTR [rbp-0x8]
    35ca:	48 63 d0             	movsxd rdx,eax
    35cd:	48 8b 45 e8          	mov    rax,QWORD PTR [rbp-0x18]
    35d1:	48 01 c2             	add    rdx,rax
    35d4:	0f b6 45 e0          	movzx  eax,BYTE PTR [rbp-0x20]
    35d8:	88 02                	mov    BYTE PTR [rdx],al
    35da:	83 45 fc 01          	add    DWORD PTR [rbp-0x4],0x1
    35de:	83 45 f8 01          	add    DWORD PTR [rbp-0x8],0x1
    35e2:	8b 45 f8             	mov    eax,DWORD PTR [rbp-0x8]
    35e5:	48 63 d0             	movsxd rdx,eax
    35e8:	48 8b 45 e8          	mov    rax,QWORD PTR [rbp-0x18]
    35ec:	48 01 d0             	add    rax,rdx
    35ef:	0f b6 00             	movzx  eax,BYTE PTR [rax]
    35f2:	84 c0                	test   al,al
    35f4:	75 bc                	jne    35b2 <replace_char+0x36>
    35f6:	8b 45 fc             	mov    eax,DWORD PTR [rbp-0x4]
    35f9:	5d                   	pop    rbp
    35fa:	c3                   	ret

00000000000035fb <_atexit>:
    35fb:	f3 0f 1e fa          	endbr64
    35ff:	55                   	push   rbp
    3600:	48 89 e5             	mov    rbp,rsp
    3603:	48 89 7d f8          	mov    QWORD PTR [rbp-0x8],rdi
    3607:	48 8b 45 f8          	mov    rax,QWORD PTR [rbp-0x8]
    360b:	48 89 05 76 31 00 00 	mov    QWORD PTR [rip+0x3176],rax        # 6788 <on_exit>
    3612:	90                   	nop
    3613:	5d                   	pop    rbp
    3614:	c3                   	ret

0000000000003615 <___get_cmd_info>:
    3615:	f3 0f 1e fa          	endbr64
    3619:	55                   	push   rbp
    361a:	48 89 e5             	mov    rbp,rsp
    361d:	48 81 ec 20 01 00 00 	sub    rsp,0x120
    3624:	48 89 bd e8 fe ff ff 	mov    QWORD PTR [rbp-0x118],rdi
    362b:	48 8d 05 f7 0a 00 00 	lea    rax,[rip+0xaf7]        # 4129 <HEAP_META_SZ+0xa5>
    3632:	48 83 ec 08          	sub    rsp,0x8
    3636:	6a 02                	push   0x2
    3638:	49 c7 c1 ff ff ff ff 	mov    r9,0xffffffffffffffff
    363f:	49 c7 c0 ff ff ff ff 	mov    r8,0xffffffffffffffff
    3646:	48 c7 c1 ff ff ff ff 	mov    rcx,0xffffffffffffffff
    364d:	ba 00 00 00 00       	mov    edx,0x0
    3652:	be 00 00 00 00       	mov    esi,0x0
    3657:	48 89 c7             	mov    rdi,rax
    365a:	e8 6d f5 ff ff       	call   2bcc <__syscall__>
    365f:	48 83 c4 10          	add    rsp,0x10
    3663:	48 89 45 f8          	mov    QWORD PTR [rbp-0x8],rax
    3667:	48 83 7d f8 00       	cmp    QWORD PTR [rbp-0x8],0x0
    366c:	7f 0a                	jg     3678 <___get_cmd_info+0x63>
    366e:	b8 ff ff ff ff       	mov    eax,0xffffffff
    3673:	e9 93 00 00 00       	jmp    370b <___get_cmd_info+0xf6>
    3678:	48 8d b5 f0 fe ff ff 	lea    rsi,[rbp-0x110]
    367f:	48 8b 45 f8          	mov    rax,QWORD PTR [rbp-0x8]
    3683:	48 83 ec 08          	sub    rsp,0x8
    3687:	6a 00                	push   0x0
    3689:	49 c7 c1 ff ff ff ff 	mov    r9,0xffffffffffffffff
    3690:	49 c7 c0 ff ff ff ff 	mov    r8,0xffffffffffffffff
    3697:	48 c7 c1 ff ff ff ff 	mov    rcx,0xffffffffffffffff
    369e:	ba ff 00 00 00       	mov    edx,0xff
    36a3:	48 89 c7             	mov    rdi,rax
    36a6:	e8 21 f5 ff ff       	call   2bcc <__syscall__>
    36ab:	48 83 c4 10          	add    rsp,0x10
    36af:	48 89 45 f0          	mov    QWORD PTR [rbp-0x10],rax
    36b3:	48 8b 55 f0          	mov    rdx,QWORD PTR [rbp-0x10]
    36b7:	48 8d 8d f0 fe ff ff 	lea    rcx,[rbp-0x110]
    36be:	48 8b 85 e8 fe ff ff 	mov    rax,QWORD PTR [rbp-0x118]
    36c5:	48 89 ce             	mov    rsi,rcx
    36c8:	48 89 c7             	mov    rdi,rax
    36cb:	e8 39 e1 ff ff       	call   1809 <mem_cpy>
    36d0:	48 8b 45 f8          	mov    rax,QWORD PTR [rbp-0x8]
    36d4:	48 83 ec 08          	sub    rsp,0x8
    36d8:	6a ff                	push   0xffffffffffffffff
    36da:	49 c7 c1 ff ff ff ff 	mov    r9,0xffffffffffffffff
    36e1:	49 c7 c0 ff ff ff ff 	mov    r8,0xffffffffffffffff
    36e8:	48 c7 c1 ff ff ff ff 	mov    rcx,0xffffffffffffffff
    36ef:	48 c7 c2 ff ff ff ff 	mov    rdx,0xffffffffffffffff
    36f6:	48 89 c6             	mov    rsi,rax
    36f9:	bf 03 00 00 00       	mov    edi,0x3
    36fe:	e8 c9 f4 ff ff       	call   2bcc <__syscall__>
    3703:	48 83 c4 10          	add    rsp,0x10
    3707:	48 8b 45 f0          	mov    rax,QWORD PTR [rbp-0x10]
    370b:	c9                   	leave
    370c:	c3                   	ret

000000000000370d <_count_char>:
    370d:	f3 0f 1e fa          	endbr64
    3711:	55                   	push   rbp
    3712:	48 89 e5             	mov    rbp,rsp
    3715:	48 89 7d e8          	mov    QWORD PTR [rbp-0x18],rdi
    3719:	89 f0                	mov    eax,esi
    371b:	89 55 e0             	mov    DWORD PTR [rbp-0x20],edx
    371e:	88 45 e4             	mov    BYTE PTR [rbp-0x1c],al
    3721:	c7 45 fc 00 00 00 00 	mov    DWORD PTR [rbp-0x4],0x0
    3728:	c7 45 f8 00 00 00 00 	mov    DWORD PTR [rbp-0x8],0x0
    372f:	eb 1d                	jmp    374e <_count_char+0x41>
    3731:	8b 45 f8             	mov    eax,DWORD PTR [rbp-0x8]
    3734:	48 63 d0             	movsxd rdx,eax
    3737:	48 8b 45 e8          	mov    rax,QWORD PTR [rbp-0x18]
    373b:	48 01 d0             	add    rax,rdx
    373e:	0f b6 00             	movzx  eax,BYTE PTR [rax]
    3741:	38 45 e4             	cmp    BYTE PTR [rbp-0x1c],al
    3744:	75 04                	jne    374a <_count_char+0x3d>
    3746:	83 45 fc 01          	add    DWORD PTR [rbp-0x4],0x1
    374a:	83 45 f8 01          	add    DWORD PTR [rbp-0x8],0x1
    374e:	8b 45 f8             	mov    eax,DWORD PTR [rbp-0x8]
    3751:	3b 45 e0             	cmp    eax,DWORD PTR [rbp-0x20]
    3754:	7c db                	jl     3731 <_count_char+0x24>
    3756:	8b 45 fc             	mov    eax,DWORD PTR [rbp-0x4]
    3759:	5d                   	pop    rbp
    375a:	c3                   	ret

000000000000375b <_find_char>:
    375b:	f3 0f 1e fa          	endbr64
    375f:	55                   	push   rbp
    3760:	48 89 e5             	mov    rbp,rsp
    3763:	48 89 7d e8          	mov    QWORD PTR [rbp-0x18],rdi
    3767:	89 f0                	mov    eax,esi
    3769:	89 55 e0             	mov    DWORD PTR [rbp-0x20],edx
    376c:	89 4d dc             	mov    DWORD PTR [rbp-0x24],ecx
    376f:	88 45 e4             	mov    BYTE PTR [rbp-0x1c],al
    3772:	c7 45 fc 00 00 00 00 	mov    DWORD PTR [rbp-0x4],0x0
    3779:	c7 45 f8 00 00 00 00 	mov    DWORD PTR [rbp-0x8],0x0
    3780:	eb 2a                	jmp    37ac <_find_char+0x51>
    3782:	8b 45 f8             	mov    eax,DWORD PTR [rbp-0x8]
    3785:	48 63 d0             	movsxd rdx,eax
    3788:	48 8b 45 e8          	mov    rax,QWORD PTR [rbp-0x18]
    378c:	48 01 d0             	add    rax,rdx
    378f:	0f b6 00             	movzx  eax,BYTE PTR [rax]
    3792:	38 45 e4             	cmp    BYTE PTR [rbp-0x1c],al
    3795:	75 04                	jne    379b <_find_char+0x40>
    3797:	83 45 fc 01          	add    DWORD PTR [rbp-0x4],0x1
    379b:	8b 45 fc             	mov    eax,DWORD PTR [rbp-0x4]
    379e:	3b 45 dc             	cmp    eax,DWORD PTR [rbp-0x24]
    37a1:	75 05                	jne    37a8 <_find_char+0x4d>
    37a3:	8b 45 f8             	mov    eax,DWORD PTR [rbp-0x8]
    37a6:	eb 11                	jmp    37b9 <_find_char+0x5e>
    37a8:	83 45 f8 01          	add    DWORD PTR [rbp-0x8],0x1
    37ac:	8b 45 f8             	mov    eax,DWORD PTR [rbp-0x8]
    37af:	3b 45 e0             	cmp    eax,DWORD PTR [rbp-0x20]
    37b2:	7c ce                	jl     3782 <_find_char+0x27>
    37b4:	b8 ff ff ff ff       	mov    eax,0xffffffff
    37b9:	5d                   	pop    rbp
    37ba:	c3                   	ret

00000000000037bb <___get_args>:
    37bb:	f3 0f 1e fa          	endbr64
    37bf:	55                   	push   rbp
    37c0:	48 89 e5             	mov    rbp,rsp
    37c3:	48 81 ec 40 04 00 00 	sub    rsp,0x440
    37ca:	48 89 bd c8 fb ff ff 	mov    QWORD PTR [rbp-0x438],rdi
    37d1:	c7 45 fc 00 00 00 00 	mov    DWORD PTR [rbp-0x4],0x0
    37d8:	48 8d 85 d0 fb ff ff 	lea    rax,[rbp-0x430]
    37df:	48 89 c7             	mov    rdi,rax
    37e2:	e8 2e fe ff ff       	call   3615 <___get_cmd_info>
    37e7:	89 45 f0             	mov    DWORD PTR [rbp-0x10],eax
    37ea:	48 8d 85 d0 fb ff ff 	lea    rax,[rbp-0x430]
    37f1:	48 89 45 e8          	mov    QWORD PTR [rbp-0x18],rax
    37f5:	8b 55 f0             	mov    edx,DWORD PTR [rbp-0x10]
    37f8:	48 8d 85 d0 fb ff ff 	lea    rax,[rbp-0x430]
    37ff:	be 00 00 00 00       	mov    esi,0x0
    3804:	48 89 c7             	mov    rdi,rax
    3807:	e8 01 ff ff ff       	call   370d <_count_char>
    380c:	89 45 e4             	mov    DWORD PTR [rbp-0x1c],eax
    380f:	83 7d e4 00          	cmp    DWORD PTR [rbp-0x1c],0x0
    3813:	75 35                	jne    384a <___get_args+0x8f>
    3815:	48 8d 85 d0 fb ff ff 	lea    rax,[rbp-0x430]
    381c:	48 89 c7             	mov    rdi,rax
    381f:	e8 4a e9 ff ff       	call   216e <str_len>
    3824:	48 63 d0             	movsxd rdx,eax
    3827:	48 8b 85 c8 fb ff ff 	mov    rax,QWORD PTR [rbp-0x438]
    382e:	48 8b 00             	mov    rax,QWORD PTR [rax]
    3831:	48 8d 8d d0 fb ff ff 	lea    rcx,[rbp-0x430]
    3838:	48 89 ce             	mov    rsi,rcx
    383b:	48 89 c7             	mov    rdi,rax
    383e:	e8 c6 df ff ff       	call   1809 <mem_cpy>
    3843:	b8 01 00 00 00       	mov    eax,0x1
    3848:	eb 7e                	jmp    38c8 <___get_args+0x10d>
    384a:	c7 45 f8 00 00 00 00 	mov    DWORD PTR [rbp-0x8],0x0
    3851:	c7 45 f4 00 00 00 00 	mov    DWORD PTR [rbp-0xc],0x0
    3858:	c7 45 e0 00 00 00 00 	mov    DWORD PTR [rbp-0x20],0x0
    385f:	eb 59                	jmp    38ba <___get_args+0xff>
    3861:	8b 45 f4             	mov    eax,DWORD PTR [rbp-0xc]
    3864:	8d 50 01             	lea    edx,[rax+0x1]
    3867:	89 55 f4             	mov    DWORD PTR [rbp-0xc],edx
    386a:	8b 55 f0             	mov    edx,DWORD PTR [rbp-0x10]
    386d:	48 8b 7d e8          	mov    rdi,QWORD PTR [rbp-0x18]
    3871:	89 c1                	mov    ecx,eax
    3873:	be 00 00 00 00       	mov    esi,0x0
    3878:	e8 de fe ff ff       	call   375b <_find_char>
    387d:	89 45 dc             	mov    DWORD PTR [rbp-0x24],eax
    3880:	83 7d dc ff          	cmp    DWORD PTR [rbp-0x24],0xffffffff
    3884:	74 3e                	je     38c4 <___get_args+0x109>
    3886:	8b 45 dc             	mov    eax,DWORD PTR [rbp-0x24]
    3889:	48 98                	cdqe
    388b:	48 8d 48 01          	lea    rcx,[rax+0x1]
    388f:	8b 45 fc             	mov    eax,DWORD PTR [rbp-0x4]
    3892:	8d 50 01             	lea    edx,[rax+0x1]
    3895:	89 55 fc             	mov    DWORD PTR [rbp-0x4],edx
    3898:	48 98                	cdqe
    389a:	48 8d 14 c5 00 00 00 	lea    rdx,[rax*8+0x0]
    38a1:	00 
    38a2:	48 8b 85 c8 fb ff ff 	mov    rax,QWORD PTR [rbp-0x438]
    38a9:	48 01 d0             	add    rax,rdx
    38ac:	48 8b 55 e8          	mov    rdx,QWORD PTR [rbp-0x18]
    38b0:	48 01 ca             	add    rdx,rcx
    38b3:	48 89 10             	mov    QWORD PTR [rax],rdx
    38b6:	83 45 f8 01          	add    DWORD PTR [rbp-0x8],0x1
    38ba:	8b 45 f8             	mov    eax,DWORD PTR [rbp-0x8]
    38bd:	3b 45 e4             	cmp    eax,DWORD PTR [rbp-0x1c]
    38c0:	7c 9f                	jl     3861 <___get_args+0xa6>
    38c2:	eb 01                	jmp    38c5 <___get_args+0x10a>
    38c4:	90                   	nop
    38c5:	8b 45 fc             	mov    eax,DWORD PTR [rbp-0x4]
    38c8:	c9                   	leave
    38c9:	c3                   	ret

00000000000038ca <_start>:
    38ca:	f3 0f 1e fa          	endbr64
    38ce:	55                   	push   rbp
    38cf:	48 89 e5             	mov    rbp,rsp
    38d2:	53                   	push   rbx
    38d3:	48 81 ec 28 04 00 00 	sub    rsp,0x428
    38da:	48 8d 05 1f 2c 00 00 	lea    rax,[rip+0x2c1f]        # 6500 <__ARGV__>
    38e1:	48 89 c7             	mov    rdi,rax
    38e4:	e8 d2 fe ff ff       	call   37bb <___get_args>
    38e9:	89 05 f1 2b 00 00    	mov    DWORD PTR [rip+0x2bf1],eax        # 64e0 <__ARGC__>
    38ef:	bf 00 20 00 00       	mov    edi,0x2000
    38f4:	e8 9a f4 ff ff       	call   2d93 <set_heap_sz>
    38f9:	b8 00 00 00 00       	mov    eax,0x0
    38fe:	e8 bc f4 ff ff       	call   2dbf <init_mem>
    3903:	8b 05 d7 2b 00 00    	mov    eax,DWORD PTR [rip+0x2bd7]        # 64e0 <__ARGC__>
    3909:	89 c6                	mov    esi,eax
    390b:	bf 08 00 00 00       	mov    edi,0x8
    3910:	e8 d1 f5 ff ff       	call   2ee6 <allocate>
    3915:	48 89 45 e0          	mov    QWORD PTR [rbp-0x20],rax
    3919:	c7 45 ec 00 00 00 00 	mov    DWORD PTR [rbp-0x14],0x0
    3920:	eb 5c                	jmp    397e <_start+0xb4>
    3922:	8b 45 ec             	mov    eax,DWORD PTR [rbp-0x14]
    3925:	48 98                	cdqe
    3927:	48 8d 14 c5 00 00 00 	lea    rdx,[rax*8+0x0]
    392e:	00 
    392f:	48 8d 05 ca 2b 00 00 	lea    rax,[rip+0x2bca]        # 6500 <__ARGV__>
    3936:	48 8b 04 02          	mov    rax,QWORD PTR [rdx+rax*1]
    393a:	8b 55 ec             	mov    edx,DWORD PTR [rbp-0x14]
    393d:	48 63 d2             	movsxd rdx,edx
    3940:	48 8d 0c d5 00 00 00 	lea    rcx,[rdx*8+0x0]
    3947:	00 
    3948:	48 8b 55 e0          	mov    rdx,QWORD PTR [rbp-0x20]
    394c:	48 8d 1c 11          	lea    rbx,[rcx+rdx*1]
    3950:	48 89 c7             	mov    rdi,rax
    3953:	e8 b2 e7 ff ff       	call   210a <str_dup>
    3958:	48 89 03             	mov    QWORD PTR [rbx],rax
    395b:	8b 45 ec             	mov    eax,DWORD PTR [rbp-0x14]
    395e:	48 98                	cdqe
    3960:	48 83 c0 01          	add    rax,0x1
    3964:	48 8d 14 c5 00 00 00 	lea    rdx,[rax*8+0x0]
    396b:	00 
    396c:	48 8b 45 e0          	mov    rax,QWORD PTR [rbp-0x20]
    3970:	48 01 d0             	add    rax,rdx
    3973:	48 c7 00 00 00 00 00 	mov    QWORD PTR [rax],0x0
    397a:	83 45 ec 01          	add    DWORD PTR [rbp-0x14],0x1
    397e:	8b 05 5c 2b 00 00    	mov    eax,DWORD PTR [rip+0x2b5c]        # 64e0 <__ARGC__>
    3984:	39 45 ec             	cmp    DWORD PTR [rbp-0x14],eax
    3987:	7c 99                	jl     3922 <_start+0x58>
    3989:	8b 05 51 2b 00 00    	mov    eax,DWORD PTR [rip+0x2b51]        # 64e0 <__ARGC__>
    398f:	48 8b 55 e0          	mov    rdx,QWORD PTR [rbp-0x20]
    3993:	48 89 d6             	mov    rsi,rdx
    3996:	89 c7                	mov    edi,eax
    3998:	e8 63 d6 ff ff       	call   1000 <entry>
    399d:	89 45 dc             	mov    DWORD PTR [rbp-0x24],eax
    39a0:	48 8b 05 e1 2d 00 00 	mov    rax,QWORD PTR [rip+0x2de1]        # 6788 <on_exit>
    39a7:	48 85 c0             	test   rax,rax
    39aa:	74 0e                	je     39ba <_start+0xf0>
    39ac:	48 8b 15 d5 2d 00 00 	mov    rdx,QWORD PTR [rip+0x2dd5]        # 6788 <on_exit>
    39b3:	b8 00 00 00 00       	mov    eax,0x0
    39b8:	ff d2                	call   rdx
    39ba:	b8 00 00 00 00       	mov    eax,0x0
    39bf:	e8 69 f9 ff ff       	call   332d <uninit_mem>
    39c4:	8b 45 dc             	mov    eax,DWORD PTR [rbp-0x24]
    39c7:	48 98                	cdqe
    39c9:	48 83 ec 08          	sub    rsp,0x8
    39cd:	6a ff                	push   0xffffffffffffffff
    39cf:	49 c7 c1 ff ff ff ff 	mov    r9,0xffffffffffffffff
    39d6:	49 c7 c0 ff ff ff ff 	mov    r8,0xffffffffffffffff
    39dd:	48 c7 c1 ff ff ff ff 	mov    rcx,0xffffffffffffffff
    39e4:	48 c7 c2 ff ff ff ff 	mov    rdx,0xffffffffffffffff
    39eb:	48 89 c6             	mov    rsi,rax
    39ee:	bf 3c 00 00 00       	mov    edi,0x3c
    39f3:	e8 fd f1 ff ff       	call   2bf5 <__syscall>
    39f8:	48 83 c4 10          	add    rsp,0x10
    39fc:	90                   	nop
    39fd:	48 8b 5d f8          	mov    rbx,QWORD PTR [rbp-0x8]
    3a01:	c9                   	leave
    3a02:	c3                   	ret
